(dp1
S'crouch'
p2
(I56
I0
tp3
sS'W-00'
p4
(I0
I0
tp5
sS'M-00'
p6
g5
sS'M'
(I0
I0
tp7
sS'stand-00'
p8
(I0
I0
tp9
sS'face'
p10
(I0
I0
tp11
sS'dash'
p12
(I107
I0
tp13
sS'punch'
p14
(I0
I0
tp15
sS'w-00'
p16
(I74
I0
tp17
sS'block'
p18
(I73
I0
tp19
sS'W'
g7
sS'stand-02'
p20
g9
sS'jab'
p21
g15
sS'hit-00'
p22
(I74
I0
tp23
sS'm-00'
p24
(I0
I0
tp25
sS'stand'
p26
(I73
I0
tp27
s.