((dp1
I128
(I88
I169
tp2
sI129
(I93
I170
tp3
sI130
(I98
I171
tp4
sI131
(I101
I171
tp5
sI132
(I106
I171
tp6
sI133
(I109
I172
tp7
sI134
(I112
I172
tp8
sI135
(I115
I174
tp9
sI136
(I117
I172
tp10
sI137
(I119
I172
tp11
sI138
(I123
I180
tp12
sI139
(I126
I182
tp13
sI140
(I130
I184
tp14
sI141
(I132
I186
tp15
sI142
(I135
I187
tp16
sI143
(I139
I188
tp17
sI144
(I140
I189
tp18
sI145
(I142
I190
tp19
sI146
(I144
I192
tp20
sI147
(I146
I194
tp21
sI148
(I150
I196
tp22
sI149
(I152
I198
tp23
sI150
(I154
I199
tp24
sI151
(I156
I200
tp25
sI152
(I167
I200
tp26
sI153
(I172
I200
tp27
sI154
(I179
I198
tp28
sI155
(I181
I196
tp29
sI156
(I185
I193
tp30
sI157
(I189
I196
tp31
sI90
(I69
I71
tp32
sI91
(I69
I74
tp33
sI92
(I69
I78
tp34
sI93
(I69
I80
tp35
sI94
(I69
I85
tp36
sI95
(I69
I90
tp37
sI96
(I68
I93
tp38
sI97
(I68
I96
tp39
sI98
(I68
I99
tp40
sI99
(I68
I106
tp41
sI100
(I68
I108
tp42
sI101
(I68
I110
tp43
sI102
(I67
I112
tp44
sI103
(I68
I116
tp45
sI104
(I67
I118
tp46
sI105
(I67
I121
tp47
sI106
(I67
I123
tp48
sI107
(I68
I125
tp49
sI108
(I68
I126
tp50
sI109
(I68
I129
tp51
sI110
(I68
I131
tp52
sI111
(I67
I136
tp53
sI112
(I66
I137
tp54
sI113
(I66
I139
tp55
sI114
(I65
I142
tp56
sI115
(I65
I145
tp57
sI116
(I65
I147
tp58
sI117
(I65
I148
tp59
sI118
(I65
I150
tp60
sI119
(I65
I153
tp61
sI120
(I65
I155
tp62
sI121
(I63
I157
tp63
sI122
(I61
I159
tp64
sI123
(I60
I160
tp65
sI124
(I59
I163
tp66
sI125
(I59
I164
tp67
sI126
(I59
I167
tp68
sI127
(I59
I168
tp69
s(dp70
I59
(I124
I127
tp71
sI60
(I123
I127
tp72
sI61
(I122
I127
tp73
sI62
(I122
I127
tp74
sI63
(I121
I127
tp75
sI64
(I121
I127
tp76
sI65
(I114
I127
tp77
sI66
(I112
I127
tp78
sI67
(I102
I127
tp79
sI68
(I96
I127
tp80
sI69
(I90
I127
tp81
sI70
(I90
I127
tp82
sI71
(I90
I127
tp83
sI72
(I91
I127
tp84
sI73
(I91
I127
tp85
sI74
(I91
I127
tp86
sI75
(I92
I127
tp87
sI76
(I92
I127
tp88
sI77
(I92
I127
tp89
sI78
(I92
I127
tp90
sI79
(I93
I127
tp91
sI80
(I93
I127
tp92
sI81
(I94
I127
tp93
sI82
(I94
I127
tp94
sI83
(I94
I127
tp95
sI84
(I94
I127
tp96
sI85
(I94
I127
tp97
sI86
(I95
I127
tp98
sI87
(I95
I127
tp99
sI88
(I95
I128
tp100
sI89
(I95
I128
tp101
sI90
(I95
I128
tp102
sI91
(I96
I128
tp103
sI92
(I96
I128
tp104
sI93
(I96
I129
tp105
sI94
(I97
I129
tp106
sI95
(I97
I129
tp107
sI96
(I97
I129
tp108
sI97
(I98
I129
tp109
sI98
(I98
I130
tp110
sI99
(I98
I130
tp111
sI100
(I99
I130
tp112
sI101
(I99
I131
tp113
sI102
(I99
I131
tp114
sI103
(I99
I131
tp115
sI104
(I99
I131
tp116
sI105
(I99
I131
tp117
sI106
(I99
I132
tp118
sI107
(I100
I132
tp119
sI108
(I100
I132
tp120
sI109
(I101
I133
tp121
sI110
(I101
I133
tp122
sI111
(I102
I133
tp123
sI112
(I102
I134
tp124
sI113
(I103
I134
tp125
sI114
(I103
I134
tp126
sI115
(I103
I135
tp127
sI116
(I103
I135
tp128
sI117
(I104
I136
tp129
sI118
(I104
I136
tp130
sI119
(I105
I137
tp131
sI120
(I105
I137
tp132
sI121
(I105
I137
tp133
sI122
(I106
I137
tp134
sI123
(I106
I138
tp135
sI124
(I107
I138
tp136
sI125
(I107
I138
tp137
sI126
(I108
I139
tp138
sI127
(I109
I139
tp139
sI128
(I109
I139
tp140
sI129
(I109
I139
tp141
sI130
(I110
I140
tp142
sI131
(I110
I140
tp143
sI132
(I111
I141
tp144
sI133
(I111
I141
tp145
sI134
(I111
I141
tp146
sI135
(I111
I142
tp147
sI136
(I111
I142
tp148
sI137
(I112
I142
tp149
sI138
(I113
I142
tp150
sI139
(I113
I143
tp151
sI140
(I114
I144
tp152
sI141
(I114
I144
tp153
sI142
(I114
I145
tp154
sI143
(I115
I145
tp155
sI144
(I115
I146
tp156
sI145
(I115
I146
tp157
sI146
(I116
I147
tp158
sI147
(I116
I147
tp159
sI148
(I117
I147
tp160
sI149
(I118
I147
tp161
sI150
(I118
I148
tp162
sI151
(I119
I148
tp163
sI152
(I119
I149
tp164
sI153
(I119
I149
tp165
sI154
(I120
I150
tp166
sI155
(I120
I150
tp167
sI156
(I121
I151
tp168
sI157
(I121
I151
tp169
sI158
(I122
I151
tp170
sI159
(I122
I151
tp171
sI160
(I123
I151
tp172
sI161
(I124
I151
tp173
sI162
(I124
I150
tp174
sI163
(I124
I150
tp175
sI164
(I125
I150
tp176
sI165
(I126
I151
tp177
sI166
(I126
I151
tp178
sI167
(I126
I152
tp179
sI168
(I127
I152
tp180
sI169
(I128
I152
tp181
sI170
(I129
I152
tp182
sI171
(I130
I152
tp183
sI172
(I133
I153
tp184
sI173
(I135
I153
tp185
sI174
(I135
I153
tp186
sI175
(I139
I153
tp187
sI176
(I140
I153
tp188
sI177
(I140
I153
tp189
sI178
(I138
I153
tp190
sI179
(I138
I154
tp191
sI180
(I138
I154
tp192
sI181
(I139
I155
tp193
sI182
(I139
I155
tp194
sI183
(I140
I155
tp195
sI184
(I140
I155
tp196
sI185
(I141
I156
tp197
sI186
(I141
I156
tp198
sI187
(I142
I156
tp199
sI188
(I143
I156
tp200
sI189
(I144
I157
tp201
sI190
(I145
I157
tp202
sI191
(I146
I157
tp203
sI192
(I146
I157
tp204
sI193
(I147
I157
tp205
sI194
(I147
I157
tp206
sI195
(I148
I157
tp207
sI196
(I148
I157
tp208
sI197
(I149
I154
tp209
sI198
(I149
I154
tp210
sI199
(I150
I153
tp211
sI200
(I151
I152
tp212
sI201
(I152
I153
tp213
stp214
.