((dp1
I0
(I111
I138
tp2
sI1
(I105
I144
tp3
sI2
(I99
I150
tp4
sI3
(I94
I155
tp5
sI4
(I90
I159
tp6
sI5
(I87
I162
tp7
sI6
(I84
I165
tp8
sI7
(I81
I168
tp9
sI8
(I79
I170
tp10
sI9
(I76
I173
tp11
sI10
(I74
I175
tp12
sI11
(I72
I177
tp13
sI12
(I70
I179
tp14
sI13
(I68
I181
tp15
sI14
(I66
I183
tp16
sI15
(I64
I185
tp17
sI16
(I63
I186
tp18
sI17
(I61
I188
tp19
sI18
(I59
I190
tp20
sI19
(I58
I191
tp21
sI20
(I56
I193
tp22
sI21
(I54
I195
tp23
sI22
(I53
I196
tp24
sI23
(I52
I197
tp25
sI24
(I50
I199
tp26
sI25
(I49
I200
tp27
sI26
(I48
I201
tp28
sI27
(I46
I203
tp29
sI28
(I45
I204
tp30
sI29
(I44
I205
tp31
sI30
(I43
I206
tp32
sI31
(I42
I207
tp33
sI32
(I41
I208
tp34
sI33
(I39
I210
tp35
sI34
(I38
I211
tp36
sI35
(I37
I212
tp37
sI36
(I36
I213
tp38
sI37
(I35
I214
tp39
sI38
(I34
I215
tp40
sI39
(I33
I216
tp41
sI40
(I32
I217
tp42
sI41
(I32
I217
tp43
sI42
(I31
I218
tp44
sI43
(I30
I219
tp45
sI44
(I29
I220
tp46
sI45
(I28
I221
tp47
sI46
(I27
I222
tp48
sI47
(I27
I222
tp49
sI48
(I26
I223
tp50
sI49
(I25
I224
tp51
sI50
(I24
I225
tp52
sI51
(I24
I225
tp53
sI52
(I23
I226
tp54
sI53
(I22
I227
tp55
sI54
(I21
I228
tp56
sI55
(I21
I228
tp57
sI56
(I20
I229
tp58
sI57
(I19
I230
tp59
sI58
(I19
I230
tp60
sI59
(I18
I231
tp61
sI60
(I18
I231
tp62
sI61
(I17
I232
tp63
sI62
(I16
I233
tp64
sI63
(I16
I233
tp65
sI64
(I15
I234
tp66
sI65
(I15
I234
tp67
sI66
(I14
I235
tp68
sI67
(I14
I235
tp69
sI68
(I13
I236
tp70
sI69
(I13
I236
tp71
sI70
(I12
I237
tp72
sI71
(I12
I237
tp73
sI72
(I11
I238
tp74
sI73
(I11
I238
tp75
sI74
(I10
I239
tp76
sI75
(I10
I239
tp77
sI76
(I9
I240
tp78
sI77
(I9
I240
tp79
sI78
(I9
I240
tp80
sI79
(I8
I241
tp81
sI80
(I8
I241
tp82
sI81
(I7
I242
tp83
sI82
(I7
I242
tp84
sI83
(I7
I242
tp85
sI84
(I6
I243
tp86
sI85
(I6
I243
tp87
sI86
(I6
I243
tp88
sI87
(I5
I244
tp89
sI88
(I5
I244
tp90
sI89
(I5
I244
tp91
sI90
(I4
I245
tp92
sI91
(I4
I245
tp93
sI92
(I4
I245
tp94
sI93
(I4
I245
tp95
sI94
(I3
I246
tp96
sI95
(I3
I246
tp97
sI96
(I3
I246
tp98
sI97
(I3
I246
tp99
sI98
(I3
I246
tp100
sI99
(I2
I247
tp101
sI100
(I2
I247
tp102
sI101
(I2
I247
tp103
sI102
(I2
I247
tp104
sI103
(I2
I247
tp105
sI104
(I1
I248
tp106
sI105
(I1
I248
tp107
sI106
(I1
I248
tp108
sI107
(I1
I248
tp109
sI108
(I1
I248
tp110
sI109
(I1
I248
tp111
sI110
(I1
I248
tp112
sI111
(I1
I248
tp113
sI112
(I1
I248
tp114
sI113
(I1
I248
tp115
sI114
(I1
I248
tp116
sI115
(I1
I248
tp117
sI116
(I1
I248
tp118
sI117
(I1
I248
tp119
sI118
(I1
I248
tp120
sI119
(I1
I248
tp121
sI120
(I1
I248
tp122
sI121
(I1
I248
tp123
sI122
(I1
I248
tp124
sI123
(I1
I248
tp125
sI124
(I1
I248
tp126
sI125
(I1
I248
tp127
sI126
(I1
I248
tp128
sI127
(I1
I248
tp129
sI128
(I1
I248
tp130
sI129
(I1
I248
tp131
sI130
(I1
I248
tp132
sI131
(I1
I248
tp133
sI132
(I1
I248
tp134
sI133
(I1
I248
tp135
sI134
(I1
I248
tp136
sI135
(I1
I248
tp137
sI136
(I1
I248
tp138
sI137
(I1
I248
tp139
sI138
(I1
I248
tp140
sI139
(I1
I248
tp141
sI140
(I1
I248
tp142
sI141
(I1
I248
tp143
sI142
(I1
I248
tp144
sI143
(I1
I248
tp145
sI144
(I1
I248
tp146
sI145
(I1
I248
tp147
sI146
(I2
I247
tp148
sI147
(I2
I247
tp149
sI148
(I2
I247
tp150
sI149
(I2
I247
tp151
sI150
(I2
I247
tp152
sI151
(I3
I246
tp153
sI152
(I3
I246
tp154
sI153
(I3
I246
tp155
sI154
(I3
I246
tp156
sI155
(I3
I246
tp157
sI156
(I4
I245
tp158
sI157
(I4
I245
tp159
sI158
(I4
I245
tp160
sI159
(I4
I245
tp161
sI160
(I5
I244
tp162
sI161
(I5
I244
tp163
sI162
(I5
I244
tp164
sI163
(I6
I243
tp165
sI164
(I6
I243
tp166
sI165
(I6
I243
tp167
sI166
(I7
I242
tp168
sI167
(I7
I242
tp169
sI168
(I7
I242
tp170
sI169
(I8
I241
tp171
sI170
(I8
I241
tp172
sI171
(I8
I241
tp173
sI172
(I9
I240
tp174
sI173
(I9
I240
tp175
sI174
(I10
I239
tp176
sI175
(I10
I239
tp177
sI176
(I11
I238
tp178
sI177
(I11
I238
tp179
sI178
(I12
I237
tp180
sI179
(I12
I237
tp181
sI180
(I13
I236
tp182
sI181
(I13
I236
tp183
sI182
(I14
I235
tp184
sI183
(I14
I235
tp185
sI184
(I15
I234
tp186
sI185
(I15
I234
tp187
sI186
(I16
I233
tp188
sI187
(I16
I233
tp189
sI188
(I17
I232
tp190
sI189
(I18
I231
tp191
sI190
(I18
I231
tp192
sI191
(I19
I230
tp193
sI192
(I19
I230
tp194
sI193
(I20
I229
tp195
sI194
(I21
I228
tp196
sI195
(I21
I228
tp197
sI196
(I22
I227
tp198
sI197
(I23
I226
tp199
sI198
(I24
I225
tp200
sI199
(I24
I225
tp201
sI200
(I25
I224
tp202
sI201
(I26
I223
tp203
sI202
(I27
I222
tp204
sI203
(I27
I222
tp205
sI204
(I28
I221
tp206
sI205
(I29
I220
tp207
sI206
(I30
I219
tp208
sI207
(I31
I218
tp209
sI208
(I32
I217
tp210
sI209
(I32
I217
tp211
sI210
(I33
I216
tp212
sI211
(I34
I215
tp213
sI212
(I35
I214
tp214
sI213
(I36
I213
tp215
sI214
(I37
I212
tp216
sI215
(I38
I211
tp217
sI216
(I39
I210
tp218
sI217
(I41
I209
tp219
sI218
(I42
I207
tp220
sI219
(I43
I206
tp221
sI220
(I44
I205
tp222
sI221
(I45
I204
tp223
sI222
(I46
I203
tp224
sI223
(I48
I201
tp225
sI224
(I49
I200
tp226
sI225
(I50
I199
tp227
sI226
(I52
I197
tp228
sI227
(I53
I196
tp229
sI228
(I54
I195
tp230
sI229
(I56
I193
tp231
sI230
(I58
I191
tp232
sI231
(I59
I190
tp233
sI232
(I61
I188
tp234
sI233
(I63
I186
tp235
sI234
(I64
I185
tp236
sI235
(I66
I183
tp237
sI236
(I68
I181
tp238
sI237
(I70
I179
tp239
sI238
(I72
I177
tp240
sI239
(I74
I175
tp241
sI240
(I76
I173
tp242
sI241
(I79
I170
tp243
sI242
(I81
I168
tp244
sI243
(I84
I165
tp245
sI244
(I87
I162
tp246
sI245
(I90
I159
tp247
sI246
(I94
I155
tp248
sI247
(I99
I151
tp249
sI248
(I104
I145
tp250
sI249
(I111
I138
tp251
s(dp252
I0
(I111
I138
tp253
sI1
(I104
I145
tp254
sI2
(I99
I150
tp255
sI3
(I94
I155
tp256
sI4
(I90
I159
tp257
sI5
(I87
I162
tp258
sI6
(I84
I165
tp259
sI7
(I81
I168
tp260
sI8
(I79
I171
tp261
sI9
(I76
I173
tp262
sI10
(I74
I175
tp263
sI11
(I72
I177
tp264
sI12
(I70
I179
tp265
sI13
(I68
I181
tp266
sI14
(I66
I183
tp267
sI15
(I64
I185
tp268
sI16
(I62
I187
tp269
sI17
(I61
I188
tp270
sI18
(I59
I190
tp271
sI19
(I57
I192
tp272
sI20
(I56
I193
tp273
sI21
(I54
I195
tp274
sI22
(I53
I196
tp275
sI23
(I52
I197
tp276
sI24
(I50
I199
tp277
sI25
(I49
I200
tp278
sI26
(I48
I201
tp279
sI27
(I46
I203
tp280
sI28
(I45
I204
tp281
sI29
(I44
I205
tp282
sI30
(I43
I206
tp283
sI31
(I42
I207
tp284
sI32
(I40
I209
tp285
sI33
(I39
I210
tp286
sI34
(I38
I211
tp287
sI35
(I37
I212
tp288
sI36
(I36
I213
tp289
sI37
(I35
I214
tp290
sI38
(I34
I215
tp291
sI39
(I33
I216
tp292
sI40
(I33
I216
tp293
sI41
(I32
I217
tp294
sI42
(I31
I218
tp295
sI43
(I30
I219
tp296
sI44
(I29
I220
tp297
sI45
(I28
I221
tp298
sI46
(I27
I222
tp299
sI47
(I27
I222
tp300
sI48
(I26
I223
tp301
sI49
(I25
I224
tp302
sI50
(I24
I225
tp303
sI51
(I24
I225
tp304
sI52
(I23
I226
tp305
sI53
(I22
I227
tp306
sI54
(I21
I228
tp307
sI55
(I21
I228
tp308
sI56
(I20
I229
tp309
sI57
(I20
I229
tp310
sI58
(I19
I230
tp311
sI59
(I18
I231
tp312
sI60
(I18
I231
tp313
sI61
(I17
I232
tp314
sI62
(I17
I232
tp315
sI63
(I16
I233
tp316
sI64
(I15
I234
tp317
sI65
(I15
I234
tp318
sI66
(I14
I235
tp319
sI67
(I14
I235
tp320
sI68
(I13
I236
tp321
sI69
(I13
I236
tp322
sI70
(I12
I237
tp323
sI71
(I12
I237
tp324
sI72
(I11
I238
tp325
sI73
(I11
I238
tp326
sI74
(I10
I239
tp327
sI75
(I10
I239
tp328
sI76
(I9
I240
tp329
sI77
(I9
I240
tp330
sI78
(I9
I240
tp331
sI79
(I8
I241
tp332
sI80
(I8
I241
tp333
sI81
(I7
I242
tp334
sI82
(I7
I242
tp335
sI83
(I7
I242
tp336
sI84
(I6
I243
tp337
sI85
(I6
I243
tp338
sI86
(I6
I243
tp339
sI87
(I5
I244
tp340
sI88
(I5
I244
tp341
sI89
(I5
I244
tp342
sI90
(I4
I245
tp343
sI91
(I4
I245
tp344
sI92
(I4
I245
tp345
sI93
(I4
I245
tp346
sI94
(I3
I246
tp347
sI95
(I3
I246
tp348
sI96
(I3
I246
tp349
sI97
(I3
I246
tp350
sI98
(I3
I246
tp351
sI99
(I2
I247
tp352
sI100
(I2
I247
tp353
sI101
(I2
I247
tp354
sI102
(I2
I247
tp355
sI103
(I2
I247
tp356
sI104
(I2
I248
tp357
sI105
(I1
I248
tp358
sI106
(I1
I248
tp359
sI107
(I1
I248
tp360
sI108
(I1
I248
tp361
sI109
(I1
I248
tp362
sI110
(I1
I248
tp363
sI111
(I1
I248
tp364
sI112
(I1
I248
tp365
sI113
(I1
I248
tp366
sI114
(I1
I248
tp367
sI115
(I1
I248
tp368
sI116
(I1
I248
tp369
sI117
(I1
I248
tp370
sI118
(I1
I248
tp371
sI119
(I1
I248
tp372
sI120
(I1
I248
tp373
sI121
(I1
I248
tp374
sI122
(I1
I248
tp375
sI123
(I1
I248
tp376
sI124
(I1
I248
tp377
sI125
(I1
I248
tp378
sI126
(I1
I248
tp379
sI127
(I1
I248
tp380
sI128
(I1
I248
tp381
sI129
(I1
I248
tp382
sI130
(I1
I248
tp383
sI131
(I1
I248
tp384
sI132
(I1
I248
tp385
sI133
(I1
I248
tp386
sI134
(I1
I248
tp387
sI135
(I1
I248
tp388
sI136
(I1
I248
tp389
sI137
(I1
I248
tp390
sI138
(I1
I248
tp391
sI139
(I1
I248
tp392
sI140
(I1
I248
tp393
sI141
(I1
I248
tp394
sI142
(I1
I248
tp395
sI143
(I1
I248
tp396
sI144
(I1
I248
tp397
sI145
(I2
I248
tp398
sI146
(I2
I247
tp399
sI147
(I2
I247
tp400
sI148
(I2
I247
tp401
sI149
(I2
I247
tp402
sI150
(I2
I247
tp403
sI151
(I3
I247
tp404
sI152
(I3
I246
tp405
sI153
(I3
I246
tp406
sI154
(I3
I246
tp407
sI155
(I3
I246
tp408
sI156
(I4
I245
tp409
sI157
(I4
I245
tp410
sI158
(I4
I245
tp411
sI159
(I4
I245
tp412
sI160
(I5
I244
tp413
sI161
(I5
I244
tp414
sI162
(I5
I244
tp415
sI163
(I6
I243
tp416
sI164
(I6
I243
tp417
sI165
(I6
I243
tp418
sI166
(I7
I242
tp419
sI167
(I7
I242
tp420
sI168
(I7
I242
tp421
sI169
(I8
I241
tp422
sI170
(I8
I241
tp423
sI171
(I9
I240
tp424
sI172
(I9
I240
tp425
sI173
(I9
I240
tp426
sI174
(I10
I239
tp427
sI175
(I10
I239
tp428
sI176
(I11
I238
tp429
sI177
(I11
I238
tp430
sI178
(I12
I237
tp431
sI179
(I12
I237
tp432
sI180
(I13
I236
tp433
sI181
(I13
I236
tp434
sI182
(I14
I235
tp435
sI183
(I14
I235
tp436
sI184
(I15
I234
tp437
sI185
(I15
I234
tp438
sI186
(I16
I233
tp439
sI187
(I17
I232
tp440
sI188
(I17
I232
tp441
sI189
(I18
I231
tp442
sI190
(I18
I231
tp443
sI191
(I19
I230
tp444
sI192
(I20
I229
tp445
sI193
(I20
I229
tp446
sI194
(I21
I228
tp447
sI195
(I21
I228
tp448
sI196
(I22
I227
tp449
sI197
(I23
I226
tp450
sI198
(I24
I225
tp451
sI199
(I24
I225
tp452
sI200
(I25
I224
tp453
sI201
(I26
I223
tp454
sI202
(I27
I222
tp455
sI203
(I27
I222
tp456
sI204
(I28
I221
tp457
sI205
(I29
I220
tp458
sI206
(I30
I219
tp459
sI207
(I31
I218
tp460
sI208
(I32
I217
tp461
sI209
(I33
I217
tp462
sI210
(I33
I216
tp463
sI211
(I34
I215
tp464
sI212
(I35
I214
tp465
sI213
(I36
I213
tp466
sI214
(I37
I212
tp467
sI215
(I38
I211
tp468
sI216
(I39
I210
tp469
sI217
(I40
I209
tp470
sI218
(I42
I207
tp471
sI219
(I43
I206
tp472
sI220
(I44
I205
tp473
sI221
(I45
I204
tp474
sI222
(I46
I203
tp475
sI223
(I48
I201
tp476
sI224
(I49
I200
tp477
sI225
(I50
I199
tp478
sI226
(I52
I197
tp479
sI227
(I53
I196
tp480
sI228
(I54
I195
tp481
sI229
(I56
I193
tp482
sI230
(I57
I192
tp483
sI231
(I59
I190
tp484
sI232
(I61
I188
tp485
sI233
(I62
I187
tp486
sI234
(I64
I185
tp487
sI235
(I66
I183
tp488
sI236
(I68
I181
tp489
sI237
(I70
I179
tp490
sI238
(I72
I177
tp491
sI239
(I74
I175
tp492
sI240
(I76
I173
tp493
sI241
(I79
I171
tp494
sI242
(I81
I168
tp495
sI243
(I84
I165
tp496
sI244
(I87
I162
tp497
sI245
(I90
I159
tp498
sI246
(I94
I155
tp499
sI247
(I99
I150
tp500
sI248
(I104
I145
tp501
sI249
(I111
I138
tp502
stp503
.