((dp1
I0
(I122
I152
tp2
sI1
(I116
I158
tp3
sI2
(I109
I165
tp4
sI3
(I104
I170
tp5
sI4
(I100
I174
tp6
sI5
(I97
I177
tp7
sI6
(I95
I179
tp8
sI7
(I92
I182
tp9
sI8
(I89
I185
tp10
sI9
(I86
I188
tp11
sI10
(I84
I190
tp12
sI11
(I82
I192
tp13
sI12
(I80
I194
tp14
sI13
(I78
I196
tp15
sI14
(I75
I199
tp16
sI15
(I73
I201
tp17
sI16
(I71
I203
tp18
sI17
(I70
I204
tp19
sI18
(I68
I206
tp20
sI19
(I67
I207
tp21
sI20
(I65
I209
tp22
sI21
(I63
I211
tp23
sI22
(I62
I212
tp24
sI23
(I60
I214
tp25
sI24
(I59
I215
tp26
sI25
(I57
I217
tp27
sI26
(I56
I218
tp28
sI27
(I55
I219
tp29
sI28
(I53
I221
tp30
sI29
(I52
I222
tp31
sI30
(I51
I223
tp32
sI31
(I49
I225
tp33
sI32
(I48
I226
tp34
sI33
(I47
I227
tp35
sI34
(I46
I228
tp36
sI35
(I45
I229
tp37
sI36
(I44
I230
tp38
sI37
(I43
I231
tp39
sI38
(I42
I232
tp40
sI39
(I41
I233
tp41
sI40
(I40
I234
tp42
sI41
(I39
I235
tp43
sI42
(I38
I236
tp44
sI43
(I37
I237
tp45
sI44
(I36
I238
tp46
sI45
(I35
I239
tp47
sI46
(I34
I240
tp48
sI47
(I33
I241
tp49
sI48
(I32
I242
tp50
sI49
(I31
I243
tp51
sI50
(I31
I243
tp52
sI51
(I30
I244
tp53
sI52
(I29
I245
tp54
sI53
(I28
I246
tp55
sI54
(I28
I246
tp56
sI55
(I27
I247
tp57
sI56
(I26
I248
tp58
sI57
(I25
I249
tp59
sI58
(I25
I249
tp60
sI59
(I24
I250
tp61
sI60
(I23
I251
tp62
sI61
(I22
I252
tp63
sI62
(I22
I252
tp64
sI63
(I21
I253
tp65
sI64
(I21
I253
tp66
sI65
(I20
I254
tp67
sI66
(I19
I255
tp68
sI67
(I19
I255
tp69
sI68
(I18
I256
tp70
sI69
(I18
I256
tp71
sI70
(I17
I257
tp72
sI71
(I16
I258
tp73
sI72
(I16
I258
tp74
sI73
(I15
I259
tp75
sI74
(I15
I259
tp76
sI75
(I14
I260
tp77
sI76
(I14
I260
tp78
sI77
(I13
I261
tp79
sI78
(I13
I261
tp80
sI79
(I13
I261
tp81
sI80
(I12
I262
tp82
sI81
(I12
I262
tp83
sI82
(I11
I263
tp84
sI83
(I11
I263
tp85
sI84
(I10
I264
tp86
sI85
(I10
I264
tp87
sI86
(I9
I265
tp88
sI87
(I9
I265
tp89
sI88
(I9
I265
tp90
sI89
(I8
I266
tp91
sI90
(I8
I266
tp92
sI91
(I8
I266
tp93
sI92
(I7
I267
tp94
sI93
(I7
I267
tp95
sI94
(I6
I268
tp96
sI95
(I6
I268
tp97
sI96
(I6
I268
tp98
sI97
(I5
I269
tp99
sI98
(I5
I269
tp100
sI99
(I5
I269
tp101
sI100
(I5
I269
tp102
sI101
(I4
I270
tp103
sI102
(I4
I270
tp104
sI103
(I4
I270
tp105
sI104
(I4
I270
tp106
sI105
(I3
I271
tp107
sI106
(I3
I271
tp108
sI107
(I3
I271
tp109
sI108
(I3
I271
tp110
sI109
(I2
I272
tp111
sI110
(I2
I272
tp112
sI111
(I2
I272
tp113
sI112
(I2
I272
tp114
sI113
(I2
I272
tp115
sI114
(I2
I272
tp116
sI115
(I1
I273
tp117
sI116
(I1
I273
tp118
sI117
(I1
I273
tp119
sI118
(I1
I273
tp120
sI119
(I1
I273
tp121
sI120
(I1
I273
tp122
sI121
(I1
I273
tp123
sI122
(I1
I273
tp124
sI123
(I1
I273
tp125
sI124
(I1
I273
tp126
sI125
(I1
I273
tp127
sI126
(I1
I273
tp128
sI127
(I1
I273
tp129
sI128
(I1
I273
tp130
sI129
(I1
I273
tp131
sI130
(I1
I273
tp132
sI131
(I1
I273
tp133
sI132
(I1
I273
tp134
sI133
(I1
I273
tp135
sI134
(I1
I273
tp136
sI135
(I1
I273
tp137
sI136
(I1
I273
tp138
sI137
(I1
I273
tp139
sI138
(I1
I273
tp140
sI139
(I1
I273
tp141
sI140
(I1
I273
tp142
sI141
(I1
I273
tp143
sI142
(I1
I273
tp144
sI143
(I1
I273
tp145
sI144
(I1
I273
tp146
sI145
(I1
I273
tp147
sI146
(I1
I273
tp148
sI147
(I1
I273
tp149
sI148
(I1
I273
tp150
sI149
(I1
I273
tp151
sI150
(I1
I273
tp152
sI151
(I1
I273
tp153
sI152
(I1
I273
tp154
sI153
(I1
I273
tp155
sI154
(I1
I273
tp156
sI155
(I1
I273
tp157
sI156
(I1
I273
tp158
sI157
(I1
I273
tp159
sI158
(I1
I273
tp160
sI159
(I1
I273
tp161
sI160
(I2
I272
tp162
sI161
(I2
I272
tp163
sI162
(I2
I272
tp164
sI163
(I2
I272
tp165
sI164
(I2
I272
tp166
sI165
(I2
I272
tp167
sI166
(I3
I271
tp168
sI167
(I3
I271
tp169
sI168
(I3
I271
tp170
sI169
(I3
I271
tp171
sI170
(I4
I271
tp172
sI171
(I4
I270
tp173
sI172
(I4
I270
tp174
sI173
(I4
I270
tp175
sI174
(I4
I270
tp176
sI175
(I5
I269
tp177
sI176
(I5
I269
tp178
sI177
(I5
I269
tp179
sI178
(I6
I268
tp180
sI179
(I6
I268
tp181
sI180
(I6
I268
tp182
sI181
(I7
I267
tp183
sI182
(I7
I267
tp184
sI183
(I8
I266
tp185
sI184
(I8
I266
tp186
sI185
(I8
I266
tp187
sI186
(I9
I265
tp188
sI187
(I9
I265
tp189
sI188
(I9
I265
tp190
sI189
(I10
I264
tp191
sI190
(I10
I264
tp192
sI191
(I11
I263
tp193
sI192
(I11
I263
tp194
sI193
(I12
I262
tp195
sI194
(I12
I262
tp196
sI195
(I13
I261
tp197
sI196
(I13
I261
tp198
sI197
(I13
I261
tp199
sI198
(I14
I260
tp200
sI199
(I14
I260
tp201
sI200
(I15
I259
tp202
sI201
(I15
I259
tp203
sI202
(I16
I258
tp204
sI203
(I16
I258
tp205
sI204
(I17
I257
tp206
sI205
(I18
I256
tp207
sI206
(I18
I256
tp208
sI207
(I19
I255
tp209
sI208
(I19
I255
tp210
sI209
(I20
I254
tp211
sI210
(I21
I253
tp212
sI211
(I21
I253
tp213
sI212
(I22
I252
tp214
sI213
(I22
I252
tp215
sI214
(I23
I251
tp216
sI215
(I24
I250
tp217
sI216
(I25
I249
tp218
sI217
(I25
I249
tp219
sI218
(I26
I248
tp220
sI219
(I27
I247
tp221
sI220
(I28
I246
tp222
sI221
(I28
I246
tp223
sI222
(I29
I245
tp224
sI223
(I30
I244
tp225
sI224
(I31
I243
tp226
sI225
(I31
I243
tp227
sI226
(I32
I242
tp228
sI227
(I33
I241
tp229
sI228
(I34
I240
tp230
sI229
(I35
I239
tp231
sI230
(I36
I238
tp232
sI231
(I37
I237
tp233
sI232
(I38
I236
tp234
sI233
(I39
I235
tp235
sI234
(I40
I234
tp236
sI235
(I40
I234
tp237
sI236
(I42
I232
tp238
sI237
(I43
I231
tp239
sI238
(I44
I230
tp240
sI239
(I45
I229
tp241
sI240
(I46
I228
tp242
sI241
(I47
I227
tp243
sI242
(I48
I226
tp244
sI243
(I49
I225
tp245
sI244
(I51
I223
tp246
sI245
(I52
I222
tp247
sI246
(I53
I221
tp248
sI247
(I55
I219
tp249
sI248
(I56
I218
tp250
sI249
(I57
I217
tp251
sI250
(I59
I215
tp252
sI251
(I60
I214
tp253
sI252
(I61
I213
tp254
sI253
(I63
I211
tp255
sI254
(I65
I209
tp256
sI255
(I67
I207
tp257
sI256
(I68
I206
tp258
sI257
(I70
I204
tp259
sI258
(I71
I203
tp260
sI259
(I73
I201
tp261
sI260
(I75
I199
tp262
sI261
(I78
I196
tp263
sI262
(I80
I194
tp264
sI263
(I82
I192
tp265
sI264
(I84
I190
tp266
sI265
(I86
I188
tp267
sI266
(I89
I185
tp268
sI267
(I91
I183
tp269
sI268
(I94
I180
tp270
sI269
(I97
I177
tp271
sI270
(I100
I174
tp272
sI271
(I104
I170
tp273
sI272
(I109
I165
tp274
sI273
(I115
I159
tp275
sI274
(I122
I152
tp276
s(dp277
I0
(I122
I152
tp278
sI1
(I115
I159
tp279
sI2
(I109
I165
tp280
sI3
(I105
I169
tp281
sI4
(I101
I174
tp282
sI5
(I97
I177
tp283
sI6
(I94
I180
tp284
sI7
(I92
I182
tp285
sI8
(I89
I185
tp286
sI9
(I86
I188
tp287
sI10
(I84
I190
tp288
sI11
(I82
I192
tp289
sI12
(I80
I194
tp290
sI13
(I77
I197
tp291
sI14
(I75
I199
tp292
sI15
(I73
I201
tp293
sI16
(I71
I203
tp294
sI17
(I70
I204
tp295
sI18
(I68
I206
tp296
sI19
(I66
I208
tp297
sI20
(I65
I209
tp298
sI21
(I63
I211
tp299
sI22
(I61
I213
tp300
sI23
(I60
I214
tp301
sI24
(I59
I215
tp302
sI25
(I57
I217
tp303
sI26
(I56
I218
tp304
sI27
(I55
I219
tp305
sI28
(I53
I221
tp306
sI29
(I52
I222
tp307
sI30
(I51
I223
tp308
sI31
(I49
I225
tp309
sI32
(I48
I226
tp310
sI33
(I47
I227
tp311
sI34
(I46
I228
tp312
sI35
(I45
I229
tp313
sI36
(I44
I230
tp314
sI37
(I43
I231
tp315
sI38
(I42
I232
tp316
sI39
(I41
I233
tp317
sI40
(I40
I235
tp318
sI41
(I39
I235
tp319
sI42
(I38
I236
tp320
sI43
(I37
I237
tp321
sI44
(I36
I238
tp322
sI45
(I35
I239
tp323
sI46
(I34
I240
tp324
sI47
(I33
I241
tp325
sI48
(I32
I242
tp326
sI49
(I31
I243
tp327
sI50
(I31
I243
tp328
sI51
(I30
I244
tp329
sI52
(I29
I245
tp330
sI53
(I28
I246
tp331
sI54
(I28
I246
tp332
sI55
(I27
I247
tp333
sI56
(I26
I248
tp334
sI57
(I25
I249
tp335
sI58
(I25
I249
tp336
sI59
(I24
I250
tp337
sI60
(I23
I251
tp338
sI61
(I23
I252
tp339
sI62
(I22
I252
tp340
sI63
(I21
I253
tp341
sI64
(I21
I253
tp342
sI65
(I20
I254
tp343
sI66
(I20
I254
tp344
sI67
(I19
I255
tp345
sI68
(I18
I256
tp346
sI69
(I18
I256
tp347
sI70
(I17
I257
tp348
sI71
(I16
I258
tp349
sI72
(I16
I258
tp350
sI73
(I15
I259
tp351
sI74
(I15
I259
tp352
sI75
(I14
I260
tp353
sI76
(I14
I260
tp354
sI77
(I14
I260
tp355
sI78
(I13
I261
tp356
sI79
(I13
I261
tp357
sI80
(I12
I262
tp358
sI81
(I12
I262
tp359
sI82
(I11
I263
tp360
sI83
(I11
I263
tp361
sI84
(I10
I264
tp362
sI85
(I10
I264
tp363
sI86
(I9
I265
tp364
sI87
(I9
I265
tp365
sI88
(I9
I265
tp366
sI89
(I8
I266
tp367
sI90
(I8
I266
tp368
sI91
(I8
I267
tp369
sI92
(I7
I267
tp370
sI93
(I7
I267
tp371
sI94
(I7
I268
tp372
sI95
(I6
I268
tp373
sI96
(I6
I268
tp374
sI97
(I5
I269
tp375
sI98
(I5
I269
tp376
sI99
(I5
I269
tp377
sI100
(I4
I270
tp378
sI101
(I4
I270
tp379
sI102
(I4
I270
tp380
sI103
(I4
I270
tp381
sI104
(I3
I271
tp382
sI105
(I3
I271
tp383
sI106
(I3
I271
tp384
sI107
(I3
I271
tp385
sI108
(I3
I271
tp386
sI109
(I2
I272
tp387
sI110
(I2
I272
tp388
sI111
(I2
I272
tp389
sI112
(I2
I272
tp390
sI113
(I2
I272
tp391
sI114
(I2
I272
tp392
sI115
(I2
I273
tp393
sI116
(I1
I273
tp394
sI117
(I1
I273
tp395
sI118
(I1
I273
tp396
sI119
(I1
I273
tp397
sI120
(I1
I273
tp398
sI121
(I1
I273
tp399
sI122
(I1
I273
tp400
sI123
(I1
I273
tp401
sI124
(I1
I273
tp402
sI125
(I1
I273
tp403
sI126
(I1
I273
tp404
sI127
(I1
I273
tp405
sI128
(I1
I273
tp406
sI129
(I1
I273
tp407
sI130
(I1
I273
tp408
sI131
(I1
I273
tp409
sI132
(I1
I273
tp410
sI133
(I1
I273
tp411
sI134
(I1
I273
tp412
sI135
(I1
I273
tp413
sI136
(I1
I273
tp414
sI137
(I1
I273
tp415
sI138
(I1
I273
tp416
sI139
(I1
I273
tp417
sI140
(I1
I273
tp418
sI141
(I1
I273
tp419
sI142
(I1
I273
tp420
sI143
(I1
I273
tp421
sI144
(I1
I273
tp422
sI145
(I1
I273
tp423
sI146
(I1
I273
tp424
sI147
(I1
I273
tp425
sI148
(I1
I273
tp426
sI149
(I1
I273
tp427
sI150
(I1
I273
tp428
sI151
(I1
I273
tp429
sI152
(I1
I273
tp430
sI153
(I1
I273
tp431
sI154
(I1
I273
tp432
sI155
(I1
I273
tp433
sI156
(I1
I273
tp434
sI157
(I1
I273
tp435
sI158
(I1
I273
tp436
sI159
(I2
I273
tp437
sI160
(I2
I272
tp438
sI161
(I2
I272
tp439
sI162
(I2
I272
tp440
sI163
(I2
I272
tp441
sI164
(I2
I272
tp442
sI165
(I2
I272
tp443
sI166
(I3
I271
tp444
sI167
(I3
I271
tp445
sI168
(I3
I271
tp446
sI169
(I3
I271
tp447
sI170
(I3
I271
tp448
sI171
(I4
I270
tp449
sI172
(I4
I270
tp450
sI173
(I4
I270
tp451
sI174
(I4
I270
tp452
sI175
(I5
I269
tp453
sI176
(I5
I269
tp454
sI177
(I5
I269
tp455
sI178
(I6
I268
tp456
sI179
(I6
I268
tp457
sI180
(I7
I268
tp458
sI181
(I7
I267
tp459
sI182
(I7
I267
tp460
sI183
(I8
I267
tp461
sI184
(I8
I266
tp462
sI185
(I8
I266
tp463
sI186
(I9
I265
tp464
sI187
(I9
I265
tp465
sI188
(I9
I265
tp466
sI189
(I10
I264
tp467
sI190
(I10
I264
tp468
sI191
(I11
I263
tp469
sI192
(I11
I263
tp470
sI193
(I12
I262
tp471
sI194
(I12
I262
tp472
sI195
(I13
I261
tp473
sI196
(I13
I261
tp474
sI197
(I14
I260
tp475
sI198
(I14
I260
tp476
sI199
(I14
I260
tp477
sI200
(I15
I259
tp478
sI201
(I15
I259
tp479
sI202
(I16
I258
tp480
sI203
(I16
I258
tp481
sI204
(I17
I257
tp482
sI205
(I18
I256
tp483
sI206
(I18
I256
tp484
sI207
(I19
I255
tp485
sI208
(I20
I254
tp486
sI209
(I20
I254
tp487
sI210
(I21
I253
tp488
sI211
(I21
I253
tp489
sI212
(I22
I252
tp490
sI213
(I23
I252
tp491
sI214
(I23
I251
tp492
sI215
(I24
I250
tp493
sI216
(I25
I249
tp494
sI217
(I25
I249
tp495
sI218
(I26
I248
tp496
sI219
(I27
I247
tp497
sI220
(I28
I246
tp498
sI221
(I28
I246
tp499
sI222
(I29
I245
tp500
sI223
(I30
I244
tp501
sI224
(I31
I243
tp502
sI225
(I31
I243
tp503
sI226
(I32
I242
tp504
sI227
(I33
I241
tp505
sI228
(I34
I240
tp506
sI229
(I35
I239
tp507
sI230
(I36
I238
tp508
sI231
(I37
I237
tp509
sI232
(I38
I236
tp510
sI233
(I39
I235
tp511
sI234
(I40
I235
tp512
sI235
(I41
I233
tp513
sI236
(I42
I232
tp514
sI237
(I43
I231
tp515
sI238
(I44
I230
tp516
sI239
(I45
I229
tp517
sI240
(I46
I228
tp518
sI241
(I47
I227
tp519
sI242
(I48
I226
tp520
sI243
(I49
I225
tp521
sI244
(I51
I223
tp522
sI245
(I52
I222
tp523
sI246
(I53
I221
tp524
sI247
(I55
I219
tp525
sI248
(I56
I218
tp526
sI249
(I57
I217
tp527
sI250
(I59
I215
tp528
sI251
(I60
I214
tp529
sI252
(I61
I213
tp530
sI253
(I63
I211
tp531
sI254
(I65
I209
tp532
sI255
(I66
I208
tp533
sI256
(I68
I206
tp534
sI257
(I70
I204
tp535
sI258
(I71
I203
tp536
sI259
(I73
I201
tp537
sI260
(I75
I199
tp538
sI261
(I77
I197
tp539
sI262
(I80
I194
tp540
sI263
(I82
I192
tp541
sI264
(I84
I190
tp542
sI265
(I86
I188
tp543
sI266
(I89
I185
tp544
sI267
(I92
I182
tp545
sI268
(I94
I180
tp546
sI269
(I97
I177
tp547
sI270
(I101
I174
tp548
sI271
(I105
I170
tp549
sI272
(I109
I165
tp550
sI273
(I115
I159
tp551
sI274
(I122
I152
tp552
stp553
.