((dp1
I0
(I69
I75
tp2
sI1
(I65
I77
tp3
sI2
(I63
I78
tp4
sI3
(I62
I80
tp5
sI4
(I61
I81
tp6
sI5
(I60
I82
tp7
sI6
(I60
I83
tp8
sI7
(I59
I84
tp9
sI8
(I59
I85
tp10
sI9
(I58
I86
tp11
sI10
(I58
I86
tp12
sI11
(I58
I86
tp13
sI12
(I57
I87
tp14
sI13
(I57
I88
tp15
sI14
(I57
I88
tp16
sI15
(I57
I88
tp17
sI16
(I57
I88
tp18
sI17
(I57
I88
tp19
sI18
(I56
I89
tp20
sI19
(I56
I90
tp21
sI20
(I55
I91
tp22
sI21
(I54
I93
tp23
sI22
(I53
I90
tp24
sI23
(I51
I88
tp25
sI24
(I50
I89
tp26
sI25
(I49
I81
tp27
sI26
(I31
I81
tp28
sI27
(I29
I81
tp29
sI28
(I28
I79
tp30
sI29
(I27
I78
tp31
sI30
(I26
I77
tp32
sI31
(I25
I117
tp33
sI32
(I24
I127
tp34
sI33
(I23
I128
tp35
sI34
(I22
I129
tp36
sI35
(I22
I130
tp37
sI36
(I21
I131
tp38
sI37
(I19
I132
tp39
sI38
(I17
I133
tp40
sI39
(I16
I133
tp41
sI40
(I14
I134
tp42
sI41
(I13
I134
tp43
sI42
(I12
I135
tp44
sI43
(I10
I136
tp45
sI44
(I8
I136
tp46
sI45
(I7
I135
tp47
sI46
(I5
I135
tp48
sI47
(I3
I134
tp49
sI48
(I2
I134
tp50
sI49
(I1
I133
tp51
sI50
(I1
I132
tp52
sI51
(I1
I131
tp53
sI52
(I1
I130
tp54
sI53
(I1
I128
tp55
sI54
(I1
I127
tp56
sI55
(I1
I124
tp57
sI56
(I3
I123
tp58
sI57
(I4
I122
tp59
sI58
(I4
I121
tp60
sI59
(I6
I121
tp61
sI60
(I7
I120
tp62
sI61
(I10
I119
tp63
sI62
(I31
I119
tp64
sI63
(I32
I118
tp65
sI64
(I33
I118
tp66
sI65
(I34
I117
tp67
sI66
(I35
I116
tp68
sI67
(I35
I116
tp69
sI68
(I35
I115
tp70
sI69
(I36
I115
tp71
sI70
(I36
I114
tp72
sI71
(I36
I114
tp73
sI72
(I37
I113
tp74
sI73
(I37
I112
tp75
sI74
(I37
I112
tp76
sI75
(I37
I110
tp77
sI76
(I37
I109
tp78
sI77
(I37
I108
tp79
sI78
(I37
I106
tp80
sI79
(I37
I104
tp81
sI80
(I37
I66
tp82
sI81
(I37
I66
tp83
sI82
(I36
I66
tp84
sI83
(I36
I67
tp85
sI84
(I36
I67
tp86
sI85
(I36
I67
tp87
sI86
(I36
I67
tp88
sI87
(I36
I67
tp89
sI88
(I35
I67
tp90
sI89
(I35
I68
tp91
sI90
(I33
I71
tp92
sI91
(I32
I74
tp93
sI92
(I32
I78
tp94
sI93
(I31
I80
tp95
sI94
(I31
I85
tp96
sI95
(I31
I90
tp97
sI96
(I31
I93
tp98
sI97
(I30
I96
tp99
sI98
(I30
I99
tp100
sI99
(I30
I106
tp101
sI100
(I30
I108
tp102
sI101
(I30
I110
tp103
sI102
(I29
I112
tp104
sI103
(I29
I116
tp105
sI104
(I29
I118
tp106
sI105
(I29
I121
tp107
sI106
(I28
I123
tp108
sI107
(I28
I125
tp109
sI108
(I28
I126
tp110
sI109
(I28
I129
tp111
sI110
(I28
I131
tp112
sI111
(I27
I136
tp113
sI112
(I27
I137
tp114
sI113
(I27
I139
tp115
sI114
(I27
I142
tp116
sI115
(I27
I145
tp117
sI116
(I27
I147
tp118
sI117
(I27
I148
tp119
sI118
(I27
I150
tp120
sI119
(I27
I153
tp121
sI120
(I27
I155
tp122
sI121
(I27
I157
tp123
sI122
(I27
I159
tp124
sI123
(I27
I160
tp125
sI124
(I27
I163
tp126
sI125
(I27
I164
tp127
sI126
(I27
I167
tp128
sI127
(I27
I168
tp129
sI128
(I27
I169
tp130
sI129
(I26
I170
tp131
sI130
(I26
I171
tp132
sI131
(I26
I171
tp133
sI132
(I26
I171
tp134
sI133
(I26
I172
tp135
sI134
(I26
I172
tp136
sI135
(I26
I174
tp137
sI136
(I26
I175
tp138
sI137
(I25
I177
tp139
sI138
(I25
I180
tp140
sI139
(I25
I182
tp141
sI140
(I25
I184
tp142
sI141
(I25
I186
tp143
sI142
(I25
I187
tp144
sI143
(I25
I188
tp145
sI144
(I25
I189
tp146
sI145
(I26
I190
tp147
sI146
(I26
I192
tp148
sI147
(I26
I194
tp149
sI148
(I26
I196
tp150
sI149
(I26
I198
tp151
sI150
(I26
I199
tp152
sI151
(I26
I200
tp153
sI152
(I26
I200
tp154
sI153
(I27
I200
tp155
sI154
(I27
I200
tp156
sI155
(I27
I200
tp157
sI156
(I27
I199
tp158
sI157
(I27
I196
tp159
sI158
(I27
I57
tp160
sI159
(I27
I57
tp161
sI160
(I27
I57
tp162
sI161
(I27
I57
tp163
sI162
(I27
I57
tp164
sI163
(I28
I57
tp165
sI164
(I28
I57
tp166
sI165
(I28
I57
tp167
sI166
(I28
I57
tp168
sI167
(I28
I57
tp169
sI168
(I28
I57
tp170
sI169
(I28
I58
tp171
sI170
(I28
I58
tp172
sI171
(I28
I58
tp173
sI172
(I29
I58
tp174
sI173
(I29
I58
tp175
sI174
(I29
I58
tp176
sI175
(I29
I59
tp177
sI176
(I29
I59
tp178
sI177
(I30
I59
tp179
sI178
(I30
I59
tp180
sI179
(I30
I59
tp181
sI180
(I30
I60
tp182
sI181
(I30
I60
tp183
sI182
(I30
I60
tp184
sI183
(I31
I60
tp185
sI184
(I31
I61
tp186
sI185
(I31
I61
tp187
sI186
(I31
I61
tp188
sI187
(I32
I62
tp189
sI188
(I32
I62
tp190
sI189
(I32
I62
tp191
sI190
(I32
I62
tp192
sI191
(I32
I62
tp193
sI192
(I32
I62
tp194
sI193
(I32
I62
tp195
sI194
(I32
I62
tp196
sI195
(I32
I62
tp197
sI196
(I32
I62
tp198
sI197
(I33
I63
tp199
sI198
(I33
I63
tp200
sI199
(I34
I63
tp201
sI200
(I34
I63
tp202
sI201
(I34
I63
tp203
sI202
(I34
I63
tp204
sI203
(I35
I63
tp205
sI204
(I35
I63
tp206
sI205
(I35
I63
tp207
sI206
(I35
I63
tp208
sI207
(I36
I63
tp209
sI208
(I36
I63
tp210
sI209
(I36
I63
tp211
sI210
(I37
I63
tp212
sI211
(I37
I63
tp213
sI212
(I38
I63
tp214
sI213
(I38
I63
tp215
sI214
(I39
I63
tp216
sI215
(I39
I62
tp217
sI216
(I39
I62
tp218
sI217
(I40
I62
tp219
sI218
(I40
I62
tp220
sI219
(I41
I62
tp221
sI220
(I41
I62
tp222
sI221
(I42
I61
tp223
sI222
(I43
I61
tp224
sI223
(I43
I61
tp225
sI224
(I44
I60
tp226
sI225
(I45
I59
tp227
sI226
(I46
I59
tp228
sI227
(I47
I59
tp229
sI228
(I47
I59
tp230
sI229
(I47
I59
tp231
sI230
(I46
I59
tp232
sI231
(I45
I59
tp233
sI232
(I45
I59
tp234
sI233
(I45
I59
tp235
sI234
(I45
I59
tp236
sI235
(I45
I59
tp237
sI236
(I44
I59
tp238
sI237
(I44
I59
tp239
sI238
(I43
I58
tp240
sI239
(I43
I58
tp241
sI240
(I42
I58
tp242
sI241
(I42
I58
tp243
sI242
(I40
I58
tp244
sI243
(I40
I58
tp245
sI244
(I39
I58
tp246
sI245
(I39
I58
tp247
sI246
(I38
I58
tp248
sI247
(I38
I58
tp249
sI248
(I38
I58
tp250
sI249
(I39
I57
tp251
sI250
(I40
I54
tp252
s(dp253
I0
(I49
I53
tp254
sI1
(I49
I55
tp255
sI2
(I48
I55
tp256
sI3
(I47
I56
tp257
sI4
(I47
I58
tp258
sI5
(I46
I58
tp259
sI6
(I46
I59
tp260
sI7
(I45
I60
tp261
sI8
(I44
I60
tp262
sI9
(I44
I60
tp263
sI10
(I43
I61
tp264
sI11
(I43
I61
tp265
sI12
(I42
I61
tp266
sI13
(I41
I61
tp267
sI14
(I40
I61
tp268
sI15
(I40
I61
tp269
sI16
(I39
I61
tp270
sI17
(I38
I61
tp271
sI18
(I38
I61
tp272
sI19
(I37
I61
tp273
sI20
(I37
I61
tp274
sI21
(I36
I61
tp275
sI22
(I34
I61
tp276
sI23
(I33
I61
tp277
sI24
(I32
I61
tp278
sI25
(I31
I144
tp279
sI26
(I30
I152
tp280
sI27
(I29
I162
tp281
sI28
(I28
I171
tp282
sI29
(I27
I176
tp283
sI30
(I27
I182
tp284
sI31
(I26
I186
tp285
sI32
(I26
I196
tp286
sI33
(I26
I198
tp287
sI34
(I26
I202
tp288
sI35
(I26
I206
tp289
sI36
(I26
I209
tp290
sI37
(I26
I211
tp291
sI38
(I26
I248
tp292
sI39
(I26
I249
tp293
sI40
(I26
I249
tp294
sI41
(I26
I249
tp295
sI42
(I27
I249
tp296
sI43
(I27
I249
tp297
sI44
(I27
I249
tp298
sI45
(I26
I249
tp299
sI46
(I26
I249
tp300
sI47
(I26
I249
tp301
sI48
(I26
I249
tp302
sI49
(I25
I249
tp303
sI50
(I24
I249
tp304
sI51
(I23
I249
tp305
sI52
(I23
I249
tp306
sI53
(I22
I249
tp307
sI54
(I21
I249
tp308
sI55
(I20
I249
tp309
sI56
(I18
I249
tp310
sI57
(I12
I249
tp311
sI58
(I9
I248
tp312
sI59
(I7
I237
tp313
sI60
(I5
I224
tp314
sI61
(I4
I223
tp315
sI62
(I3
I220
tp316
sI63
(I2
I214
tp317
sI64
(I2
I127
tp318
sI65
(I1
I127
tp319
sI66
(I1
I127
tp320
sI67
(I1
I127
tp321
sI68
(I1
I127
tp322
sI69
(I1
I127
tp323
sI70
(I1
I127
tp324
sI71
(I1
I127
tp325
sI72
(I1
I127
tp326
sI73
(I1
I127
tp327
sI74
(I1
I127
tp328
sI75
(I1
I127
tp329
sI76
(I1
I127
tp330
sI77
(I1
I127
tp331
sI78
(I2
I127
tp332
sI79
(I3
I127
tp333
sI80
(I3
I127
tp334
sI81
(I4
I127
tp335
sI82
(I5
I127
tp336
sI83
(I6
I127
tp337
sI84
(I7
I127
tp338
sI85
(I8
I127
tp339
sI86
(I9
I127
tp340
sI87
(I12
I127
tp341
sI88
(I13
I128
tp342
sI89
(I18
I128
tp343
sI90
(I19
I128
tp344
sI91
(I20
I128
tp345
sI92
(I21
I128
tp346
sI93
(I21
I129
tp347
sI94
(I57
I129
tp348
sI95
(I59
I129
tp349
sI96
(I61
I129
tp350
sI97
(I62
I129
tp351
sI98
(I63
I130
tp352
sI99
(I64
I130
tp353
sI100
(I65
I130
tp354
sI101
(I65
I131
tp355
sI102
(I65
I131
tp356
sI103
(I64
I131
tp357
sI104
(I63
I131
tp358
sI105
(I63
I131
tp359
sI106
(I62
I132
tp360
sI107
(I61
I132
tp361
sI108
(I60
I132
tp362
sI109
(I59
I133
tp363
sI110
(I58
I133
tp364
sI111
(I57
I133
tp365
sI112
(I56
I134
tp366
sI113
(I55
I134
tp367
sI114
(I53
I134
tp368
sI115
(I52
I135
tp369
sI116
(I32
I135
tp370
sI117
(I31
I136
tp371
sI118
(I32
I136
tp372
sI119
(I33
I137
tp373
sI120
(I33
I137
tp374
sI121
(I36
I137
tp375
sI122
(I35
I137
tp376
sI123
(I33
I138
tp377
sI124
(I32
I138
tp378
sI125
(I32
I138
tp379
sI126
(I32
I139
tp380
sI127
(I32
I139
tp381
sI128
(I33
I139
tp382
sI129
(I34
I139
tp383
sI130
(I35
I140
tp384
sI131
(I36
I140
tp385
sI132
(I37
I141
tp386
sI133
(I38
I141
tp387
sI134
(I40
I141
tp388
sI135
(I42
I142
tp389
sI136
(I43
I142
tp390
sI137
(I112
I142
tp391
sI138
(I113
I142
tp392
sI139
(I113
I143
tp393
sI140
(I114
I144
tp394
sI141
(I114
I144
tp395
sI142
(I114
I145
tp396
sI143
(I115
I145
tp397
sI144
(I115
I146
tp398
sI145
(I115
I146
tp399
sI146
(I116
I147
tp400
sI147
(I116
I147
tp401
sI148
(I117
I147
tp402
sI149
(I118
I147
tp403
sI150
(I118
I148
tp404
sI151
(I119
I148
tp405
sI152
(I119
I149
tp406
sI153
(I119
I149
tp407
sI154
(I120
I150
tp408
sI155
(I120
I150
tp409
sI156
(I121
I151
tp410
sI157
(I121
I151
tp411
sI158
(I122
I151
tp412
sI159
(I122
I151
tp413
sI160
(I123
I151
tp414
sI161
(I124
I151
tp415
sI162
(I124
I150
tp416
sI163
(I124
I150
tp417
sI164
(I125
I150
tp418
sI165
(I126
I151
tp419
sI166
(I126
I151
tp420
sI167
(I126
I152
tp421
sI168
(I127
I152
tp422
sI169
(I128
I152
tp423
sI170
(I129
I152
tp424
sI171
(I130
I152
tp425
sI172
(I133
I153
tp426
sI173
(I135
I153
tp427
sI174
(I135
I153
tp428
sI175
(I136
I153
tp429
sI176
(I137
I153
tp430
sI177
(I137
I153
tp431
sI178
(I138
I153
tp432
sI179
(I138
I154
tp433
sI180
(I138
I154
tp434
sI181
(I139
I155
tp435
sI182
(I139
I155
tp436
sI183
(I140
I155
tp437
sI184
(I140
I155
tp438
sI185
(I141
I156
tp439
sI186
(I141
I156
tp440
sI187
(I142
I156
tp441
sI188
(I143
I156
tp442
sI189
(I144
I157
tp443
sI190
(I145
I157
tp444
sI191
(I146
I157
tp445
sI192
(I146
I157
tp446
sI193
(I147
I157
tp447
sI194
(I147
I157
tp448
sI195
(I148
I157
tp449
sI196
(I148
I157
tp450
sI197
(I149
I156
tp451
sI198
(I149
I156
tp452
sI199
(I150
I156
tp453
sI200
(I151
I155
tp454
sI201
(I152
I153
tp455
stp456
.