((dp1
I0
(I69
I75
tp2
sI1
(I65
I77
tp3
sI2
(I63
I78
tp4
sI3
(I62
I80
tp5
sI4
(I61
I81
tp6
sI5
(I60
I82
tp7
sI6
(I60
I83
tp8
sI7
(I59
I84
tp9
sI8
(I59
I85
tp10
sI9
(I58
I86
tp11
sI10
(I58
I86
tp12
sI11
(I58
I86
tp13
sI12
(I57
I87
tp14
sI13
(I57
I88
tp15
sI14
(I57
I88
tp16
sI15
(I57
I88
tp17
sI16
(I57
I89
tp18
sI17
(I57
I89
tp19
sI18
(I56
I90
tp20
sI19
(I56
I90
tp21
sI20
(I55
I91
tp22
sI21
(I54
I91
tp23
sI22
(I53
I92
tp24
sI23
(I51
I87
tp25
sI24
(I50
I87
tp26
sI25
(I49
I87
tp27
sI26
(I31
I81
tp28
sI27
(I29
I81
tp29
sI28
(I28
I79
tp30
sI29
(I27
I129
tp31
sI30
(I26
I130
tp32
sI31
(I25
I131
tp33
sI32
(I24
I132
tp34
sI33
(I23
I133
tp35
sI34
(I22
I134
tp36
sI35
(I22
I135
tp37
sI36
(I21
I135
tp38
sI37
(I19
I136
tp39
sI38
(I17
I136
tp40
sI39
(I16
I137
tp41
sI40
(I14
I137
tp42
sI41
(I13
I137
tp43
sI42
(I12
I137
tp44
sI43
(I10
I137
tp45
sI44
(I8
I136
tp46
sI45
(I7
I136
tp47
sI46
(I5
I135
tp48
sI47
(I3
I134
tp49
sI48
(I2
I133
tp50
sI49
(I1
I133
tp51
sI50
(I1
I132
tp52
sI51
(I1
I131
tp53
sI52
(I1
I129
tp54
sI53
(I1
I128
tp55
sI54
(I1
I125
tp56
sI55
(I1
I124
tp57
sI56
(I3
I123
tp58
sI57
(I4
I122
tp59
sI58
(I4
I122
tp60
sI59
(I6
I121
tp61
sI60
(I7
I120
tp62
sI61
(I10
I120
tp63
sI62
(I31
I119
tp64
sI63
(I32
I119
tp65
sI64
(I33
I118
tp66
sI65
(I34
I117
tp67
sI66
(I35
I117
tp68
sI67
(I35
I116
tp69
sI68
(I35
I116
tp70
sI69
(I36
I115
tp71
sI70
(I36
I115
tp72
sI71
(I36
I114
tp73
sI72
(I37
I113
tp74
sI73
(I37
I113
tp75
sI74
(I37
I111
tp76
sI75
(I37
I110
tp77
sI76
(I37
I109
tp78
sI77
(I37
I107
tp79
sI78
(I37
I105
tp80
sI79
(I37
I66
tp81
sI80
(I37
I66
tp82
sI81
(I37
I66
tp83
sI82
(I36
I66
tp84
sI83
(I36
I66
tp85
sI84
(I36
I66
tp86
sI85
(I36
I66
tp87
sI86
(I36
I66
tp88
sI87
(I36
I66
tp89
sI88
(I35
I66
tp90
sI89
(I35
I66
tp91
sI90
(I34
I67
tp92
sI91
(I33
I67
tp93
sI92
(I32
I67
tp94
sI93
(I32
I68
tp95
sI94
(I32
I68
tp96
sI95
(I32
I68
tp97
sI96
(I32
I68
tp98
sI97
(I31
I69
tp99
sI98
(I31
I69
tp100
sI99
(I30
I70
tp101
sI100
(I30
I70
tp102
sI101
(I30
I70
tp103
sI102
(I30
I71
tp104
sI103
(I30
I71
tp105
sI104
(I30
I72
tp106
sI105
(I30
I72
tp107
sI106
(I29
I72
tp108
sI107
(I29
I73
tp109
sI108
(I29
I73
tp110
sI109
(I29
I74
tp111
sI110
(I29
I74
tp112
sI111
(I29
I75
tp113
sI112
(I29
I75
tp114
sI113
(I29
I76
tp115
sI114
(I29
I76
tp116
sI115
(I28
I76
tp117
sI116
(I28
I77
tp118
sI117
(I28
I77
tp119
sI118
(I28
I78
tp120
sI119
(I28
I78
tp121
sI120
(I28
I78
tp122
sI121
(I28
I78
tp123
sI122
(I28
I79
tp124
sI123
(I28
I79
tp125
sI124
(I28
I79
tp126
sI125
(I28
I80
tp127
sI126
(I28
I80
tp128
sI127
(I28
I80
tp129
sI128
(I27
I81
tp130
sI129
(I27
I81
tp131
sI130
(I27
I82
tp132
sI131
(I27
I82
tp133
sI132
(I27
I83
tp134
sI133
(I27
I83
tp135
sI134
(I27
I84
tp136
sI135
(I26
I84
tp137
sI136
(I26
I84
tp138
sI137
(I26
I84
tp139
sI138
(I26
I84
tp140
sI139
(I26
I85
tp141
sI140
(I26
I85
tp142
sI141
(I26
I85
tp143
sI142
(I26
I86
tp144
sI143
(I25
I86
tp145
sI144
(I25
I86
tp146
sI145
(I25
I86
tp147
sI146
(I25
I86
tp148
sI147
(I25
I87
tp149
sI148
(I25
I87
tp150
sI149
(I25
I87
tp151
sI150
(I24
I87
tp152
sI151
(I24
I87
tp153
sI152
(I24
I88
tp154
sI153
(I24
I88
tp155
sI154
(I24
I89
tp156
sI155
(I24
I89
tp157
sI156
(I24
I89
tp158
sI157
(I24
I90
tp159
sI158
(I24
I90
tp160
sI159
(I24
I90
tp161
sI160
(I24
I91
tp162
sI161
(I24
I91
tp163
sI162
(I24
I91
tp164
sI163
(I24
I92
tp165
sI164
(I24
I92
tp166
sI165
(I24
I92
tp167
sI166
(I24
I93
tp168
sI167
(I24
I93
tp169
sI168
(I25
I93
tp170
sI169
(I25
I94
tp171
sI170
(I25
I94
tp172
sI171
(I25
I94
tp173
sI172
(I25
I95
tp174
sI173
(I25
I95
tp175
sI174
(I25
I95
tp176
sI175
(I25
I95
tp177
sI176
(I25
I96
tp178
sI177
(I25
I96
tp179
sI178
(I25
I96
tp180
sI179
(I25
I97
tp181
sI180
(I25
I97
tp182
sI181
(I26
I97
tp183
sI182
(I26
I97
tp184
sI183
(I26
I98
tp185
sI184
(I26
I98
tp186
sI185
(I26
I98
tp187
sI186
(I27
I98
tp188
sI187
(I27
I98
tp189
sI188
(I27
I99
tp190
sI189
(I27
I99
tp191
sI190
(I28
I99
tp192
sI191
(I28
I99
tp193
sI192
(I28
I99
tp194
sI193
(I28
I99
tp195
sI194
(I29
I100
tp196
sI195
(I29
I100
tp197
sI196
(I30
I100
tp198
sI197
(I30
I100
tp199
sI198
(I30
I100
tp200
sI199
(I31
I100
tp201
sI200
(I31
I100
tp202
sI201
(I31
I100
tp203
sI202
(I31
I100
tp204
sI203
(I32
I101
tp205
sI204
(I32
I101
tp206
sI205
(I32
I101
tp207
sI206
(I33
I101
tp208
sI207
(I33
I101
tp209
sI208
(I34
I101
tp210
sI209
(I34
I101
tp211
sI210
(I34
I101
tp212
sI211
(I35
I100
tp213
sI212
(I35
I100
tp214
sI213
(I36
I99
tp215
sI214
(I36
I99
tp216
sI215
(I37
I98
tp217
sI216
(I37
I98
tp218
sI217
(I38
I98
tp219
sI218
(I38
I99
tp220
sI219
(I39
I100
tp221
sI220
(I39
I100
tp222
sI221
(I40
I101
tp223
sI222
(I40
I101
tp224
sI223
(I41
I102
tp225
sI224
(I41
I103
tp226
sI225
(I42
I104
tp227
sI226
(I43
I104
tp228
sI227
(I43
I105
tp229
sI228
(I44
I106
tp230
sI229
(I44
I107
tp231
sI230
(I45
I107
tp232
sI231
(I45
I108
tp233
sI232
(I45
I109
tp234
sI233
(I44
I109
tp235
sI234
(I44
I110
tp236
sI235
(I43
I110
tp237
sI236
(I43
I110
tp238
sI237
(I42
I110
tp239
sI238
(I42
I110
tp240
sI239
(I40
I109
tp241
sI240
(I40
I108
tp242
sI241
(I39
I106
tp243
sI242
(I39
I58
tp244
sI243
(I38
I58
tp245
sI244
(I38
I58
tp246
sI245
(I38
I58
tp247
sI246
(I39
I57
tp248
sI247
(I40
I54
tp249
s(dp250
I0
(I49
I53
tp251
sI1
(I49
I55
tp252
sI2
(I48
I55
tp253
sI3
(I47
I56
tp254
sI4
(I47
I58
tp255
sI5
(I46
I58
tp256
sI6
(I46
I59
tp257
sI7
(I45
I60
tp258
sI8
(I44
I60
tp259
sI9
(I44
I60
tp260
sI10
(I43
I61
tp261
sI11
(I43
I61
tp262
sI12
(I42
I61
tp263
sI13
(I41
I61
tp264
sI14
(I40
I61
tp265
sI15
(I40
I61
tp266
sI16
(I39
I61
tp267
sI17
(I38
I61
tp268
sI18
(I38
I61
tp269
sI19
(I37
I61
tp270
sI20
(I37
I61
tp271
sI21
(I36
I61
tp272
sI22
(I34
I61
tp273
sI23
(I33
I61
tp274
sI24
(I32
I167
tp275
sI25
(I31
I180
tp276
sI26
(I30
I185
tp277
sI27
(I29
I189
tp278
sI28
(I28
I193
tp279
sI29
(I27
I195
tp280
sI30
(I27
I198
tp281
sI31
(I26
I202
tp282
sI32
(I26
I205
tp283
sI33
(I26
I207
tp284
sI34
(I26
I210
tp285
sI35
(I26
I212
tp286
sI36
(I26
I214
tp287
sI37
(I26
I216
tp288
sI38
(I26
I245
tp289
sI39
(I26
I246
tp290
sI40
(I26
I246
tp291
sI41
(I26
I246
tp292
sI42
(I27
I246
tp293
sI43
(I27
I246
tp294
sI44
(I27
I246
tp295
sI45
(I26
I246
tp296
sI46
(I26
I246
tp297
sI47
(I26
I246
tp298
sI48
(I26
I246
tp299
sI49
(I25
I246
tp300
sI50
(I24
I246
tp301
sI51
(I23
I246
tp302
sI52
(I23
I246
tp303
sI53
(I22
I246
tp304
sI54
(I21
I246
tp305
sI55
(I20
I246
tp306
sI56
(I18
I246
tp307
sI57
(I12
I246
tp308
sI58
(I9
I245
tp309
sI59
(I7
I234
tp310
sI60
(I5
I223
tp311
sI61
(I4
I215
tp312
sI62
(I3
I214
tp313
sI63
(I2
I166
tp314
sI64
(I2
I170
tp315
sI65
(I1
I174
tp316
sI66
(I1
I178
tp317
sI67
(I1
I180
tp318
sI68
(I1
I184
tp319
sI69
(I1
I188
tp320
sI70
(I1
I190
tp321
sI71
(I1
I193
tp322
sI72
(I1
I198
tp323
sI73
(I1
I201
tp324
sI74
(I1
I203
tp325
sI75
(I1
I207
tp326
sI76
(I1
I208
tp327
sI77
(I1
I209
tp328
sI78
(I2
I211
tp329
sI79
(I3
I212
tp330
sI80
(I3
I214
tp331
sI81
(I4
I219
tp332
sI82
(I5
I222
tp333
sI83
(I6
I224
tp334
sI84
(I7
I225
tp335
sI85
(I8
I226
tp336
sI86
(I9
I227
tp337
sI87
(I12
I228
tp338
sI88
(I13
I229
tp339
sI89
(I16
I230
tp340
sI90
(I18
I231
tp341
sI91
(I20
I233
tp342
sI92
(I22
I235
tp343
sI93
(I54
I236
tp344
sI94
(I55
I237
tp345
sI95
(I56
I238
tp346
sI96
(I58
I238
tp347
sI97
(I60
I239
tp348
sI98
(I61
I239
tp349
sI99
(I62
I239
tp350
sI100
(I63
I240
tp351
sI101
(I64
I240
tp352
sI102
(I64
I240
tp353
sI103
(I64
I241
tp354
sI104
(I63
I241
tp355
sI105
(I62
I241
tp356
sI106
(I62
I241
tp357
sI107
(I61
I240
tp358
sI108
(I60
I240
tp359
sI109
(I59
I239
tp360
sI110
(I58
I238
tp361
sI111
(I57
I74
tp362
sI112
(I56
I73
tp363
sI113
(I55
I73
tp364
sI114
(I54
I71
tp365
sI115
(I52
I70
tp366
sI116
(I51
I68
tp367
sI117
(I39
I66
tp368
sI118
(I31
I64
tp369
sI119
(I30
I63
tp370
sI120
(I31
I61
tp371
sI121
(I32
I59
tp372
sI122
(I32
I58
tp373
sI123
(I33
I56
tp374
sI124
(I32
I55
tp375
sI125
(I30
I54
tp376
sI126
(I29
I53
tp377
sI127
(I29
I53
tp378
sI128
(I29
I53
tp379
sI129
(I29
I52
tp380
sI130
(I30
I51
tp381
sI131
(I31
I51
tp382
sI132
(I32
I50
tp383
sI133
(I33
I49
tp384
sI134
(I34
I47
tp385
sI135
(I35
I46
tp386
sI136
(I37
I45
tp387
sI137
(I39
I43
tp388
sI138
(I40
I41
tp389
stp390
.