((dp1
I0
(I104
I129
tp2
sI1
(I98
I135
tp3
sI2
(I92
I141
tp4
sI3
(I88
I145
tp5
sI4
(I84
I149
tp6
sI5
(I81
I152
tp7
sI6
(I78
I155
tp8
sI7
(I75
I158
tp9
sI8
(I73
I160
tp10
sI9
(I70
I163
tp11
sI10
(I68
I165
tp12
sI11
(I66
I167
tp13
sI12
(I64
I169
tp14
sI13
(I62
I171
tp15
sI14
(I60
I173
tp16
sI15
(I59
I174
tp17
sI16
(I57
I176
tp18
sI17
(I55
I178
tp19
sI18
(I54
I179
tp20
sI19
(I52
I181
tp21
sI20
(I51
I182
tp22
sI21
(I49
I184
tp23
sI22
(I48
I185
tp24
sI23
(I47
I186
tp25
sI24
(I45
I188
tp26
sI25
(I44
I189
tp27
sI26
(I43
I190
tp28
sI27
(I41
I192
tp29
sI28
(I40
I193
tp30
sI29
(I39
I194
tp31
sI30
(I38
I195
tp32
sI31
(I37
I196
tp33
sI32
(I36
I197
tp34
sI33
(I35
I198
tp35
sI34
(I34
I199
tp36
sI35
(I33
I200
tp37
sI36
(I32
I201
tp38
sI37
(I31
I202
tp39
sI38
(I30
I203
tp40
sI39
(I29
I204
tp41
sI40
(I28
I205
tp42
sI41
(I27
I206
tp43
sI42
(I27
I206
tp44
sI43
(I26
I207
tp45
sI44
(I25
I208
tp46
sI45
(I24
I209
tp47
sI46
(I24
I209
tp48
sI47
(I23
I210
tp49
sI48
(I22
I211
tp50
sI49
(I21
I212
tp51
sI50
(I21
I212
tp52
sI51
(I20
I213
tp53
sI52
(I19
I214
tp54
sI53
(I18
I215
tp55
sI54
(I18
I215
tp56
sI55
(I17
I216
tp57
sI56
(I17
I216
tp58
sI57
(I16
I217
tp59
sI58
(I15
I218
tp60
sI59
(I15
I218
tp61
sI60
(I14
I219
tp62
sI61
(I14
I219
tp63
sI62
(I13
I220
tp64
sI63
(I13
I220
tp65
sI64
(I12
I221
tp66
sI65
(I12
I221
tp67
sI66
(I11
I222
tp68
sI67
(I11
I222
tp69
sI68
(I10
I223
tp70
sI69
(I10
I223
tp71
sI70
(I9
I224
tp72
sI71
(I9
I224
tp73
sI72
(I9
I224
tp74
sI73
(I8
I225
tp75
sI74
(I8
I225
tp76
sI75
(I7
I226
tp77
sI76
(I7
I226
tp78
sI77
(I7
I226
tp79
sI78
(I6
I227
tp80
sI79
(I6
I227
tp81
sI80
(I6
I227
tp82
sI81
(I5
I228
tp83
sI82
(I5
I228
tp84
sI83
(I5
I228
tp85
sI84
(I4
I229
tp86
sI85
(I4
I229
tp87
sI86
(I4
I229
tp88
sI87
(I4
I229
tp89
sI88
(I3
I230
tp90
sI89
(I3
I230
tp91
sI90
(I3
I230
tp92
sI91
(I3
I230
tp93
sI92
(I2
I231
tp94
sI93
(I2
I231
tp95
sI94
(I2
I231
tp96
sI95
(I2
I231
tp97
sI96
(I2
I231
tp98
sI97
(I1
I232
tp99
sI98
(I1
I232
tp100
sI99
(I1
I232
tp101
sI100
(I1
I232
tp102
sI101
(I1
I232
tp103
sI102
(I1
I232
tp104
sI103
(I1
I232
tp105
sI104
(I1
I232
tp106
sI105
(I1
I232
tp107
sI106
(I1
I232
tp108
sI107
(I1
I232
tp109
sI108
(I1
I232
tp110
sI109
(I1
I232
tp111
sI110
(I1
I232
tp112
sI111
(I1
I232
tp113
sI112
(I1
I232
tp114
sI113
(I1
I232
tp115
sI114
(I1
I232
tp116
sI115
(I1
I232
tp117
sI116
(I1
I232
tp118
sI117
(I1
I232
tp119
sI118
(I1
I232
tp120
sI119
(I1
I232
tp121
sI120
(I1
I232
tp122
sI121
(I1
I232
tp123
sI122
(I1
I232
tp124
sI123
(I1
I232
tp125
sI124
(I1
I232
tp126
sI125
(I1
I232
tp127
sI126
(I1
I232
tp128
sI127
(I1
I232
tp129
sI128
(I1
I232
tp130
sI129
(I1
I232
tp131
sI130
(I1
I232
tp132
sI131
(I1
I232
tp133
sI132
(I1
I232
tp134
sI133
(I1
I232
tp135
sI134
(I1
I232
tp136
sI135
(I1
I232
tp137
sI136
(I1
I232
tp138
sI137
(I2
I231
tp139
sI138
(I2
I231
tp140
sI139
(I2
I231
tp141
sI140
(I2
I231
tp142
sI141
(I2
I231
tp143
sI142
(I3
I230
tp144
sI143
(I3
I230
tp145
sI144
(I3
I230
tp146
sI145
(I3
I230
tp147
sI146
(I4
I229
tp148
sI147
(I4
I229
tp149
sI148
(I4
I229
tp150
sI149
(I4
I229
tp151
sI150
(I5
I228
tp152
sI151
(I5
I228
tp153
sI152
(I5
I228
tp154
sI153
(I6
I227
tp155
sI154
(I6
I227
tp156
sI155
(I6
I227
tp157
sI156
(I7
I226
tp158
sI157
(I7
I226
tp159
sI158
(I7
I226
tp160
sI159
(I8
I225
tp161
sI160
(I8
I225
tp162
sI161
(I9
I224
tp163
sI162
(I9
I224
tp164
sI163
(I9
I224
tp165
sI164
(I10
I223
tp166
sI165
(I10
I223
tp167
sI166
(I11
I222
tp168
sI167
(I11
I222
tp169
sI168
(I12
I221
tp170
sI169
(I12
I221
tp171
sI170
(I13
I220
tp172
sI171
(I13
I220
tp173
sI172
(I14
I219
tp174
sI173
(I14
I219
tp175
sI174
(I15
I218
tp176
sI175
(I15
I218
tp177
sI176
(I16
I217
tp178
sI177
(I17
I216
tp179
sI178
(I17
I216
tp180
sI179
(I18
I215
tp181
sI180
(I18
I215
tp182
sI181
(I19
I214
tp183
sI182
(I20
I213
tp184
sI183
(I21
I212
tp185
sI184
(I21
I212
tp186
sI185
(I22
I211
tp187
sI186
(I23
I210
tp188
sI187
(I24
I209
tp189
sI188
(I24
I209
tp190
sI189
(I25
I208
tp191
sI190
(I26
I207
tp192
sI191
(I26
I207
tp193
sI192
(I27
I206
tp194
sI193
(I28
I205
tp195
sI194
(I29
I204
tp196
sI195
(I30
I203
tp197
sI196
(I31
I202
tp198
sI197
(I32
I201
tp199
sI198
(I33
I200
tp200
sI199
(I34
I199
tp201
sI200
(I35
I198
tp202
sI201
(I36
I197
tp203
sI202
(I37
I196
tp204
sI203
(I38
I195
tp205
sI204
(I39
I194
tp206
sI205
(I40
I193
tp207
sI206
(I41
I192
tp208
sI207
(I42
I191
tp209
sI208
(I44
I189
tp210
sI209
(I45
I188
tp211
sI210
(I47
I186
tp212
sI211
(I48
I185
tp213
sI212
(I49
I184
tp214
sI213
(I51
I182
tp215
sI214
(I52
I181
tp216
sI215
(I54
I179
tp217
sI216
(I55
I178
tp218
sI217
(I57
I176
tp219
sI218
(I59
I174
tp220
sI219
(I60
I173
tp221
sI220
(I62
I171
tp222
sI221
(I64
I169
tp223
sI222
(I66
I167
tp224
sI223
(I68
I165
tp225
sI224
(I70
I163
tp226
sI225
(I73
I160
tp227
sI226
(I75
I158
tp228
sI227
(I78
I155
tp229
sI228
(I81
I152
tp230
sI229
(I84
I149
tp231
sI230
(I87
I146
tp232
sI231
(I92
I141
tp233
sI232
(I97
I136
tp234
sI233
(I104
I129
tp235
s(dp236
I0
(I104
I129
tp237
sI1
(I97
I136
tp238
sI2
(I92
I141
tp239
sI3
(I88
I145
tp240
sI4
(I84
I149
tp241
sI5
(I81
I152
tp242
sI6
(I78
I155
tp243
sI7
(I75
I158
tp244
sI8
(I73
I160
tp245
sI9
(I70
I163
tp246
sI10
(I68
I165
tp247
sI11
(I66
I167
tp248
sI12
(I64
I169
tp249
sI13
(I62
I171
tp250
sI14
(I60
I173
tp251
sI15
(I58
I175
tp252
sI16
(I57
I176
tp253
sI17
(I55
I178
tp254
sI18
(I53
I180
tp255
sI19
(I52
I181
tp256
sI20
(I51
I182
tp257
sI21
(I49
I184
tp258
sI22
(I48
I185
tp259
sI23
(I47
I186
tp260
sI24
(I45
I188
tp261
sI25
(I44
I189
tp262
sI26
(I43
I191
tp263
sI27
(I41
I192
tp264
sI28
(I40
I193
tp265
sI29
(I39
I194
tp266
sI30
(I38
I195
tp267
sI31
(I37
I196
tp268
sI32
(I36
I197
tp269
sI33
(I35
I198
tp270
sI34
(I34
I199
tp271
sI35
(I33
I200
tp272
sI36
(I32
I201
tp273
sI37
(I31
I202
tp274
sI38
(I30
I203
tp275
sI39
(I29
I204
tp276
sI40
(I28
I205
tp277
sI41
(I27
I206
tp278
sI42
(I27
I207
tp279
sI43
(I26
I207
tp280
sI44
(I25
I208
tp281
sI45
(I24
I209
tp282
sI46
(I24
I209
tp283
sI47
(I23
I210
tp284
sI48
(I22
I211
tp285
sI49
(I21
I212
tp286
sI50
(I21
I212
tp287
sI51
(I20
I213
tp288
sI52
(I19
I214
tp289
sI53
(I19
I214
tp290
sI54
(I18
I215
tp291
sI55
(I17
I216
tp292
sI56
(I17
I216
tp293
sI57
(I16
I217
tp294
sI58
(I16
I217
tp295
sI59
(I15
I218
tp296
sI60
(I14
I219
tp297
sI61
(I14
I219
tp298
sI62
(I13
I220
tp299
sI63
(I13
I220
tp300
sI64
(I12
I221
tp301
sI65
(I12
I221
tp302
sI66
(I11
I222
tp303
sI67
(I11
I222
tp304
sI68
(I10
I223
tp305
sI69
(I10
I223
tp306
sI70
(I9
I224
tp307
sI71
(I9
I224
tp308
sI72
(I9
I224
tp309
sI73
(I8
I225
tp310
sI74
(I8
I225
tp311
sI75
(I7
I226
tp312
sI76
(I7
I226
tp313
sI77
(I7
I226
tp314
sI78
(I6
I227
tp315
sI79
(I6
I227
tp316
sI80
(I6
I227
tp317
sI81
(I5
I228
tp318
sI82
(I5
I228
tp319
sI83
(I5
I228
tp320
sI84
(I4
I229
tp321
sI85
(I4
I229
tp322
sI86
(I4
I229
tp323
sI87
(I4
I230
tp324
sI88
(I3
I230
tp325
sI89
(I3
I230
tp326
sI90
(I3
I230
tp327
sI91
(I3
I230
tp328
sI92
(I2
I231
tp329
sI93
(I2
I231
tp330
sI94
(I2
I231
tp331
sI95
(I2
I231
tp332
sI96
(I2
I231
tp333
sI97
(I2
I232
tp334
sI98
(I1
I232
tp335
sI99
(I1
I232
tp336
sI100
(I1
I232
tp337
sI101
(I1
I232
tp338
sI102
(I1
I232
tp339
sI103
(I1
I232
tp340
sI104
(I1
I232
tp341
sI105
(I1
I232
tp342
sI106
(I1
I232
tp343
sI107
(I1
I232
tp344
sI108
(I1
I232
tp345
sI109
(I1
I232
tp346
sI110
(I1
I232
tp347
sI111
(I1
I232
tp348
sI112
(I1
I232
tp349
sI113
(I1
I232
tp350
sI114
(I1
I232
tp351
sI115
(I1
I232
tp352
sI116
(I1
I232
tp353
sI117
(I1
I232
tp354
sI118
(I1
I232
tp355
sI119
(I1
I232
tp356
sI120
(I1
I232
tp357
sI121
(I1
I232
tp358
sI122
(I1
I232
tp359
sI123
(I1
I232
tp360
sI124
(I1
I232
tp361
sI125
(I1
I232
tp362
sI126
(I1
I232
tp363
sI127
(I1
I232
tp364
sI128
(I1
I232
tp365
sI129
(I1
I232
tp366
sI130
(I1
I232
tp367
sI131
(I1
I232
tp368
sI132
(I1
I232
tp369
sI133
(I1
I232
tp370
sI134
(I1
I232
tp371
sI135
(I1
I232
tp372
sI136
(I2
I232
tp373
sI137
(I2
I231
tp374
sI138
(I2
I231
tp375
sI139
(I2
I231
tp376
sI140
(I2
I231
tp377
sI141
(I2
I231
tp378
sI142
(I3
I230
tp379
sI143
(I3
I230
tp380
sI144
(I3
I230
tp381
sI145
(I3
I230
tp382
sI146
(I4
I230
tp383
sI147
(I4
I229
tp384
sI148
(I4
I229
tp385
sI149
(I4
I229
tp386
sI150
(I5
I228
tp387
sI151
(I5
I228
tp388
sI152
(I5
I228
tp389
sI153
(I6
I227
tp390
sI154
(I6
I227
tp391
sI155
(I6
I227
tp392
sI156
(I7
I226
tp393
sI157
(I7
I226
tp394
sI158
(I7
I226
tp395
sI159
(I8
I225
tp396
sI160
(I8
I225
tp397
sI161
(I9
I224
tp398
sI162
(I9
I224
tp399
sI163
(I9
I224
tp400
sI164
(I10
I223
tp401
sI165
(I10
I223
tp402
sI166
(I11
I222
tp403
sI167
(I11
I222
tp404
sI168
(I12
I221
tp405
sI169
(I12
I221
tp406
sI170
(I13
I220
tp407
sI171
(I13
I220
tp408
sI172
(I14
I219
tp409
sI173
(I14
I219
tp410
sI174
(I15
I218
tp411
sI175
(I16
I217
tp412
sI176
(I16
I217
tp413
sI177
(I17
I216
tp414
sI178
(I17
I216
tp415
sI179
(I18
I215
tp416
sI180
(I19
I214
tp417
sI181
(I19
I214
tp418
sI182
(I20
I213
tp419
sI183
(I21
I212
tp420
sI184
(I21
I212
tp421
sI185
(I22
I211
tp422
sI186
(I23
I210
tp423
sI187
(I24
I209
tp424
sI188
(I24
I209
tp425
sI189
(I25
I208
tp426
sI190
(I26
I207
tp427
sI191
(I27
I207
tp428
sI192
(I27
I206
tp429
sI193
(I28
I205
tp430
sI194
(I29
I204
tp431
sI195
(I30
I203
tp432
sI196
(I31
I202
tp433
sI197
(I32
I201
tp434
sI198
(I33
I200
tp435
sI199
(I34
I199
tp436
sI200
(I35
I198
tp437
sI201
(I36
I197
tp438
sI202
(I37
I196
tp439
sI203
(I38
I195
tp440
sI204
(I39
I194
tp441
sI205
(I40
I193
tp442
sI206
(I41
I192
tp443
sI207
(I43
I191
tp444
sI208
(I44
I189
tp445
sI209
(I45
I188
tp446
sI210
(I47
I186
tp447
sI211
(I48
I185
tp448
sI212
(I49
I184
tp449
sI213
(I51
I182
tp450
sI214
(I52
I181
tp451
sI215
(I53
I180
tp452
sI216
(I55
I178
tp453
sI217
(I57
I176
tp454
sI218
(I58
I175
tp455
sI219
(I60
I173
tp456
sI220
(I62
I171
tp457
sI221
(I64
I169
tp458
sI222
(I66
I167
tp459
sI223
(I68
I165
tp460
sI224
(I70
I163
tp461
sI225
(I73
I160
tp462
sI226
(I75
I158
tp463
sI227
(I78
I155
tp464
sI228
(I81
I152
tp465
sI229
(I84
I149
tp466
sI230
(I88
I145
tp467
sI231
(I92
I141
tp468
sI232
(I97
I136
tp469
sI233
(I104
I129
tp470
stp471
.