((dp1
I0
(I133
I166
tp2
sI1
(I126
I173
tp3
sI2
(I120
I179
tp4
sI3
(I115
I184
tp5
sI4
(I112
I187
tp6
sI5
(I108
I191
tp7
sI6
(I104
I195
tp8
sI7
(I102
I197
tp9
sI8
(I99
I200
tp10
sI9
(I96
I203
tp11
sI10
(I94
I205
tp12
sI11
(I91
I208
tp13
sI12
(I89
I210
tp14
sI13
(I87
I212
tp15
sI14
(I85
I214
tp16
sI15
(I83
I216
tp17
sI16
(I81
I218
tp18
sI17
(I79
I220
tp19
sI18
(I77
I222
tp20
sI19
(I75
I224
tp21
sI20
(I74
I225
tp22
sI21
(I72
I227
tp23
sI22
(I71
I228
tp24
sI23
(I69
I230
tp25
sI24
(I67
I232
tp26
sI25
(I66
I233
tp27
sI26
(I64
I235
tp28
sI27
(I63
I236
tp29
sI28
(I62
I237
tp30
sI29
(I60
I239
tp31
sI30
(I59
I240
tp32
sI31
(I57
I242
tp33
sI32
(I56
I243
tp34
sI33
(I55
I244
tp35
sI34
(I54
I245
tp36
sI35
(I53
I246
tp37
sI36
(I51
I248
tp38
sI37
(I50
I249
tp39
sI38
(I49
I250
tp40
sI39
(I48
I251
tp41
sI40
(I47
I252
tp42
sI41
(I46
I253
tp43
sI42
(I45
I254
tp44
sI43
(I44
I255
tp45
sI44
(I43
I256
tp46
sI45
(I42
I257
tp47
sI46
(I41
I258
tp48
sI47
(I40
I259
tp49
sI48
(I39
I260
tp50
sI49
(I38
I261
tp51
sI50
(I37
I262
tp52
sI51
(I36
I263
tp53
sI52
(I36
I263
tp54
sI53
(I35
I264
tp55
sI54
(I34
I265
tp56
sI55
(I33
I266
tp57
sI56
(I32
I267
tp58
sI57
(I31
I268
tp59
sI58
(I31
I268
tp60
sI59
(I30
I269
tp61
sI60
(I29
I270
tp62
sI61
(I29
I270
tp63
sI62
(I28
I271
tp64
sI63
(I27
I272
tp65
sI64
(I26
I273
tp66
sI65
(I26
I273
tp67
sI66
(I25
I274
tp68
sI67
(I24
I275
tp69
sI68
(I24
I275
tp70
sI69
(I23
I276
tp71
sI70
(I22
I277
tp72
sI71
(I22
I277
tp73
sI72
(I21
I278
tp74
sI73
(I20
I279
tp75
sI74
(I20
I279
tp76
sI75
(I19
I280
tp77
sI76
(I19
I280
tp78
sI77
(I18
I281
tp79
sI78
(I18
I281
tp80
sI79
(I17
I282
tp81
sI80
(I17
I282
tp82
sI81
(I16
I283
tp83
sI82
(I16
I283
tp84
sI83
(I15
I284
tp85
sI84
(I15
I284
tp86
sI85
(I14
I285
tp87
sI86
(I14
I285
tp88
sI87
(I13
I286
tp89
sI88
(I13
I286
tp90
sI89
(I12
I287
tp91
sI90
(I12
I287
tp92
sI91
(I11
I288
tp93
sI92
(I11
I288
tp94
sI93
(I11
I288
tp95
sI94
(I10
I289
tp96
sI95
(I10
I289
tp97
sI96
(I9
I290
tp98
sI97
(I9
I290
tp99
sI98
(I9
I290
tp100
sI99
(I8
I291
tp101
sI100
(I8
I291
tp102
sI101
(I7
I292
tp103
sI102
(I7
I292
tp104
sI103
(I7
I292
tp105
sI104
(I6
I293
tp106
sI105
(I6
I293
tp107
sI106
(I6
I293
tp108
sI107
(I6
I293
tp109
sI108
(I5
I294
tp110
sI109
(I5
I294
tp111
sI110
(I5
I294
tp112
sI111
(I5
I294
tp113
sI112
(I4
I295
tp114
sI113
(I4
I295
tp115
sI114
(I4
I295
tp116
sI115
(I3
I296
tp117
sI116
(I3
I296
tp118
sI117
(I3
I296
tp119
sI118
(I3
I296
tp120
sI119
(I3
I296
tp121
sI120
(I2
I297
tp122
sI121
(I2
I297
tp123
sI122
(I2
I297
tp124
sI123
(I2
I297
tp125
sI124
(I2
I297
tp126
sI125
(I2
I297
tp127
sI126
(I1
I298
tp128
sI127
(I1
I298
tp129
sI128
(I1
I298
tp130
sI129
(I1
I298
tp131
sI130
(I1
I298
tp132
sI131
(I1
I298
tp133
sI132
(I1
I298
tp134
sI133
(I1
I298
tp135
sI134
(I1
I298
tp136
sI135
(I1
I298
tp137
sI136
(I1
I298
tp138
sI137
(I1
I298
tp139
sI138
(I1
I298
tp140
sI139
(I1
I298
tp141
sI140
(I1
I298
tp142
sI141
(I1
I298
tp143
sI142
(I1
I298
tp144
sI143
(I1
I298
tp145
sI144
(I1
I298
tp146
sI145
(I1
I298
tp147
sI146
(I1
I298
tp148
sI147
(I1
I298
tp149
sI148
(I1
I298
tp150
sI149
(I1
I298
tp151
sI150
(I1
I298
tp152
sI151
(I1
I298
tp153
sI152
(I1
I298
tp154
sI153
(I1
I298
tp155
sI154
(I1
I298
tp156
sI155
(I1
I298
tp157
sI156
(I1
I298
tp158
sI157
(I1
I298
tp159
sI158
(I1
I298
tp160
sI159
(I1
I298
tp161
sI160
(I1
I298
tp162
sI161
(I1
I298
tp163
sI162
(I1
I298
tp164
sI163
(I1
I298
tp165
sI164
(I1
I298
tp166
sI165
(I1
I298
tp167
sI166
(I1
I298
tp168
sI167
(I1
I298
tp169
sI168
(I1
I298
tp170
sI169
(I1
I298
tp171
sI170
(I1
I298
tp172
sI171
(I1
I298
tp173
sI172
(I1
I298
tp174
sI173
(I1
I298
tp175
sI174
(I2
I297
tp176
sI175
(I2
I297
tp177
sI176
(I2
I297
tp178
sI177
(I2
I297
tp179
sI178
(I2
I297
tp180
sI179
(I2
I297
tp181
sI180
(I3
I296
tp182
sI181
(I3
I296
tp183
sI182
(I3
I296
tp184
sI183
(I3
I296
tp185
sI184
(I3
I296
tp186
sI185
(I4
I295
tp187
sI186
(I4
I295
tp188
sI187
(I4
I295
tp189
sI188
(I5
I294
tp190
sI189
(I5
I294
tp191
sI190
(I5
I294
tp192
sI191
(I5
I294
tp193
sI192
(I6
I293
tp194
sI193
(I6
I293
tp195
sI194
(I6
I293
tp196
sI195
(I6
I293
tp197
sI196
(I7
I292
tp198
sI197
(I7
I292
tp199
sI198
(I7
I292
tp200
sI199
(I8
I291
tp201
sI200
(I8
I291
tp202
sI201
(I9
I290
tp203
sI202
(I9
I290
tp204
sI203
(I9
I290
tp205
sI204
(I10
I289
tp206
sI205
(I10
I289
tp207
sI206
(I10
I289
tp208
sI207
(I11
I288
tp209
sI208
(I11
I288
tp210
sI209
(I12
I287
tp211
sI210
(I12
I287
tp212
sI211
(I13
I286
tp213
sI212
(I13
I286
tp214
sI213
(I14
I285
tp215
sI214
(I14
I285
tp216
sI215
(I15
I284
tp217
sI216
(I15
I284
tp218
sI217
(I16
I283
tp219
sI218
(I16
I283
tp220
sI219
(I17
I282
tp221
sI220
(I17
I282
tp222
sI221
(I18
I281
tp223
sI222
(I18
I281
tp224
sI223
(I19
I280
tp225
sI224
(I19
I280
tp226
sI225
(I20
I279
tp227
sI226
(I20
I279
tp228
sI227
(I21
I278
tp229
sI228
(I22
I277
tp230
sI229
(I22
I277
tp231
sI230
(I23
I276
tp232
sI231
(I24
I275
tp233
sI232
(I24
I275
tp234
sI233
(I25
I274
tp235
sI234
(I26
I273
tp236
sI235
(I26
I273
tp237
sI236
(I27
I272
tp238
sI237
(I28
I271
tp239
sI238
(I29
I270
tp240
sI239
(I29
I270
tp241
sI240
(I30
I269
tp242
sI241
(I31
I268
tp243
sI242
(I31
I268
tp244
sI243
(I32
I267
tp245
sI244
(I33
I266
tp246
sI245
(I34
I265
tp247
sI246
(I35
I264
tp248
sI247
(I36
I263
tp249
sI248
(I36
I263
tp250
sI249
(I37
I262
tp251
sI250
(I38
I261
tp252
sI251
(I39
I260
tp253
sI252
(I40
I259
tp254
sI253
(I41
I258
tp255
sI254
(I42
I257
tp256
sI255
(I43
I256
tp257
sI256
(I44
I255
tp258
sI257
(I45
I254
tp259
sI258
(I46
I253
tp260
sI259
(I47
I252
tp261
sI260
(I48
I251
tp262
sI261
(I49
I250
tp263
sI262
(I50
I249
tp264
sI263
(I51
I248
tp265
sI264
(I53
I246
tp266
sI265
(I54
I245
tp267
sI266
(I55
I244
tp268
sI267
(I56
I243
tp269
sI268
(I57
I242
tp270
sI269
(I59
I240
tp271
sI270
(I60
I239
tp272
sI271
(I62
I237
tp273
sI272
(I63
I236
tp274
sI273
(I64
I235
tp275
sI274
(I66
I233
tp276
sI275
(I67
I232
tp277
sI276
(I69
I230
tp278
sI277
(I71
I228
tp279
sI278
(I72
I227
tp280
sI279
(I74
I225
tp281
sI280
(I75
I224
tp282
sI281
(I77
I222
tp283
sI282
(I79
I220
tp284
sI283
(I81
I218
tp285
sI284
(I83
I216
tp286
sI285
(I85
I214
tp287
sI286
(I87
I212
tp288
sI287
(I89
I210
tp289
sI288
(I91
I208
tp290
sI289
(I93
I206
tp291
sI290
(I96
I203
tp292
sI291
(I99
I200
tp293
sI292
(I101
I198
tp294
sI293
(I104
I195
tp295
sI294
(I108
I191
tp296
sI295
(I112
I187
tp297
sI296
(I115
I184
tp298
sI297
(I120
I179
tp299
sI298
(I126
I173
tp300
sI299
(I133
I166
tp301
s(dp302
I0
(I133
I166
tp303
sI1
(I126
I173
tp304
sI2
(I120
I179
tp305
sI3
(I115
I184
tp306
sI4
(I112
I187
tp307
sI5
(I108
I191
tp308
sI6
(I104
I195
tp309
sI7
(I101
I198
tp310
sI8
(I99
I200
tp311
sI9
(I96
I203
tp312
sI10
(I94
I206
tp313
sI11
(I91
I208
tp314
sI12
(I89
I210
tp315
sI13
(I87
I212
tp316
sI14
(I85
I214
tp317
sI15
(I83
I216
tp318
sI16
(I81
I218
tp319
sI17
(I79
I220
tp320
sI18
(I77
I222
tp321
sI19
(I75
I224
tp322
sI20
(I73
I226
tp323
sI21
(I72
I227
tp324
sI22
(I70
I229
tp325
sI23
(I69
I230
tp326
sI24
(I67
I232
tp327
sI25
(I66
I233
tp328
sI26
(I64
I235
tp329
sI27
(I63
I236
tp330
sI28
(I62
I237
tp331
sI29
(I60
I239
tp332
sI30
(I59
I240
tp333
sI31
(I57
I242
tp334
sI32
(I56
I243
tp335
sI33
(I55
I244
tp336
sI34
(I54
I245
tp337
sI35
(I53
I246
tp338
sI36
(I51
I248
tp339
sI37
(I50
I249
tp340
sI38
(I49
I250
tp341
sI39
(I48
I251
tp342
sI40
(I47
I252
tp343
sI41
(I46
I253
tp344
sI42
(I45
I254
tp345
sI43
(I44
I255
tp346
sI44
(I43
I256
tp347
sI45
(I42
I257
tp348
sI46
(I41
I258
tp349
sI47
(I40
I259
tp350
sI48
(I39
I260
tp351
sI49
(I38
I261
tp352
sI50
(I37
I262
tp353
sI51
(I36
I263
tp354
sI52
(I36
I263
tp355
sI53
(I35
I264
tp356
sI54
(I34
I265
tp357
sI55
(I33
I266
tp358
sI56
(I32
I267
tp359
sI57
(I31
I268
tp360
sI58
(I31
I268
tp361
sI59
(I30
I269
tp362
sI60
(I29
I270
tp363
sI61
(I29
I270
tp364
sI62
(I28
I271
tp365
sI63
(I27
I272
tp366
sI64
(I26
I273
tp367
sI65
(I26
I273
tp368
sI66
(I25
I274
tp369
sI67
(I24
I275
tp370
sI68
(I24
I275
tp371
sI69
(I23
I276
tp372
sI70
(I23
I276
tp373
sI71
(I22
I277
tp374
sI72
(I21
I278
tp375
sI73
(I21
I278
tp376
sI74
(I20
I279
tp377
sI75
(I19
I280
tp378
sI76
(I19
I280
tp379
sI77
(I18
I281
tp380
sI78
(I18
I281
tp381
sI79
(I17
I282
tp382
sI80
(I17
I282
tp383
sI81
(I16
I283
tp384
sI82
(I16
I283
tp385
sI83
(I15
I284
tp386
sI84
(I15
I284
tp387
sI85
(I14
I285
tp388
sI86
(I14
I285
tp389
sI87
(I13
I286
tp390
sI88
(I13
I286
tp391
sI89
(I12
I287
tp392
sI90
(I12
I287
tp393
sI91
(I11
I288
tp394
sI92
(I11
I288
tp395
sI93
(I11
I289
tp396
sI94
(I10
I289
tp397
sI95
(I10
I289
tp398
sI96
(I9
I290
tp399
sI97
(I9
I290
tp400
sI98
(I9
I290
tp401
sI99
(I8
I291
tp402
sI100
(I8
I291
tp403
sI101
(I8
I292
tp404
sI102
(I7
I292
tp405
sI103
(I7
I292
tp406
sI104
(I6
I293
tp407
sI105
(I6
I293
tp408
sI106
(I6
I293
tp409
sI107
(I6
I293
tp410
sI108
(I5
I294
tp411
sI109
(I5
I294
tp412
sI110
(I5
I294
tp413
sI111
(I5
I294
tp414
sI112
(I4
I295
tp415
sI113
(I4
I295
tp416
sI114
(I4
I295
tp417
sI115
(I3
I296
tp418
sI116
(I3
I296
tp419
sI117
(I3
I296
tp420
sI118
(I3
I296
tp421
sI119
(I3
I296
tp422
sI120
(I2
I297
tp423
sI121
(I2
I297
tp424
sI122
(I2
I297
tp425
sI123
(I2
I297
tp426
sI124
(I2
I297
tp427
sI125
(I2
I297
tp428
sI126
(I1
I298
tp429
sI127
(I1
I298
tp430
sI128
(I1
I298
tp431
sI129
(I1
I298
tp432
sI130
(I1
I298
tp433
sI131
(I1
I298
tp434
sI132
(I1
I298
tp435
sI133
(I1
I298
tp436
sI134
(I1
I298
tp437
sI135
(I1
I298
tp438
sI136
(I1
I298
tp439
sI137
(I1
I298
tp440
sI138
(I1
I298
tp441
sI139
(I1
I298
tp442
sI140
(I1
I298
tp443
sI141
(I1
I298
tp444
sI142
(I1
I298
tp445
sI143
(I1
I298
tp446
sI144
(I1
I298
tp447
sI145
(I1
I298
tp448
sI146
(I1
I298
tp449
sI147
(I1
I298
tp450
sI148
(I1
I298
tp451
sI149
(I1
I298
tp452
sI150
(I1
I298
tp453
sI151
(I1
I298
tp454
sI152
(I1
I298
tp455
sI153
(I1
I298
tp456
sI154
(I1
I298
tp457
sI155
(I1
I298
tp458
sI156
(I1
I298
tp459
sI157
(I1
I298
tp460
sI158
(I1
I298
tp461
sI159
(I1
I298
tp462
sI160
(I1
I298
tp463
sI161
(I1
I298
tp464
sI162
(I1
I298
tp465
sI163
(I1
I298
tp466
sI164
(I1
I298
tp467
sI165
(I1
I298
tp468
sI166
(I1
I298
tp469
sI167
(I1
I298
tp470
sI168
(I1
I298
tp471
sI169
(I1
I298
tp472
sI170
(I1
I298
tp473
sI171
(I1
I298
tp474
sI172
(I1
I298
tp475
sI173
(I1
I298
tp476
sI174
(I2
I297
tp477
sI175
(I2
I297
tp478
sI176
(I2
I297
tp479
sI177
(I2
I297
tp480
sI178
(I2
I297
tp481
sI179
(I2
I297
tp482
sI180
(I3
I296
tp483
sI181
(I3
I296
tp484
sI182
(I3
I296
tp485
sI183
(I3
I296
tp486
sI184
(I3
I296
tp487
sI185
(I4
I295
tp488
sI186
(I4
I295
tp489
sI187
(I4
I295
tp490
sI188
(I5
I294
tp491
sI189
(I5
I294
tp492
sI190
(I5
I294
tp493
sI191
(I5
I294
tp494
sI192
(I6
I293
tp495
sI193
(I6
I293
tp496
sI194
(I6
I293
tp497
sI195
(I6
I293
tp498
sI196
(I7
I292
tp499
sI197
(I7
I292
tp500
sI198
(I8
I292
tp501
sI199
(I8
I291
tp502
sI200
(I8
I291
tp503
sI201
(I9
I290
tp504
sI202
(I9
I290
tp505
sI203
(I9
I290
tp506
sI204
(I10
I289
tp507
sI205
(I10
I289
tp508
sI206
(I11
I289
tp509
sI207
(I11
I288
tp510
sI208
(I11
I288
tp511
sI209
(I12
I287
tp512
sI210
(I12
I287
tp513
sI211
(I13
I286
tp514
sI212
(I13
I286
tp515
sI213
(I14
I285
tp516
sI214
(I14
I285
tp517
sI215
(I15
I284
tp518
sI216
(I15
I284
tp519
sI217
(I16
I283
tp520
sI218
(I16
I283
tp521
sI219
(I17
I282
tp522
sI220
(I17
I282
tp523
sI221
(I18
I281
tp524
sI222
(I18
I281
tp525
sI223
(I19
I280
tp526
sI224
(I19
I280
tp527
sI225
(I20
I279
tp528
sI226
(I21
I278
tp529
sI227
(I21
I278
tp530
sI228
(I22
I277
tp531
sI229
(I23
I276
tp532
sI230
(I23
I276
tp533
sI231
(I24
I275
tp534
sI232
(I24
I275
tp535
sI233
(I25
I274
tp536
sI234
(I26
I273
tp537
sI235
(I26
I273
tp538
sI236
(I27
I272
tp539
sI237
(I28
I271
tp540
sI238
(I29
I270
tp541
sI239
(I29
I270
tp542
sI240
(I30
I269
tp543
sI241
(I31
I268
tp544
sI242
(I31
I268
tp545
sI243
(I32
I267
tp546
sI244
(I33
I266
tp547
sI245
(I34
I265
tp548
sI246
(I35
I264
tp549
sI247
(I36
I263
tp550
sI248
(I36
I263
tp551
sI249
(I37
I262
tp552
sI250
(I38
I261
tp553
sI251
(I39
I260
tp554
sI252
(I40
I259
tp555
sI253
(I41
I258
tp556
sI254
(I42
I257
tp557
sI255
(I43
I256
tp558
sI256
(I44
I255
tp559
sI257
(I45
I254
tp560
sI258
(I46
I253
tp561
sI259
(I47
I252
tp562
sI260
(I48
I251
tp563
sI261
(I49
I250
tp564
sI262
(I50
I249
tp565
sI263
(I51
I248
tp566
sI264
(I53
I246
tp567
sI265
(I54
I245
tp568
sI266
(I55
I244
tp569
sI267
(I56
I243
tp570
sI268
(I57
I242
tp571
sI269
(I59
I240
tp572
sI270
(I60
I239
tp573
sI271
(I62
I237
tp574
sI272
(I63
I236
tp575
sI273
(I64
I235
tp576
sI274
(I66
I233
tp577
sI275
(I67
I232
tp578
sI276
(I69
I230
tp579
sI277
(I70
I229
tp580
sI278
(I72
I227
tp581
sI279
(I73
I226
tp582
sI280
(I75
I224
tp583
sI281
(I77
I222
tp584
sI282
(I79
I220
tp585
sI283
(I81
I218
tp586
sI284
(I83
I216
tp587
sI285
(I85
I214
tp588
sI286
(I87
I212
tp589
sI287
(I89
I210
tp590
sI288
(I91
I208
tp591
sI289
(I94
I206
tp592
sI290
(I96
I203
tp593
sI291
(I99
I200
tp594
sI292
(I101
I198
tp595
sI293
(I104
I195
tp596
sI294
(I108
I191
tp597
sI295
(I112
I187
tp598
sI296
(I115
I184
tp599
sI297
(I120
I179
tp600
sI298
(I126
I173
tp601
sI299
(I133
I166
tp602
stp603
.