((dp1
I1
(I18
I20
tp2
sI2
(I15
I25
tp3
sI3
(I14
I31
tp4
sI4
(I13
I34
tp5
sI5
(I12
I37
tp6
sI6
(I10
I40
tp7
sI7
(I9
I42
tp8
sI8
(I8
I45
tp9
sI9
(I7
I47
tp10
sI10
(I7
I48
tp11
sI11
(I6
I49
tp12
sI12
(I6
I50
tp13
sI13
(I6
I51
tp14
sI14
(I6
I52
tp15
sI15
(I6
I53
tp16
sI16
(I6
I54
tp17
sI17
(I6
I54
tp18
sI18
(I7
I55
tp19
sI19
(I7
I55
tp20
sI20
(I8
I55
tp21
sI21
(I9
I56
tp22
sI22
(I11
I56
tp23
sI23
(I12
I57
tp24
sI24
(I13
I57
tp25
sI25
(I12
I58
tp26
sI26
(I10
I58
tp27
sI27
(I9
I59
tp28
sI28
(I8
I60
tp29
sI29
(I8
I61
tp30
sI30
(I8
I61
tp31
sI31
(I7
I62
tp32
sI32
(I7
I62
tp33
sI33
(I8
I62
tp34
sI34
(I8
I62
tp35
sI35
(I8
I62
tp36
sI36
(I9
I62
tp37
sI37
(I10
I62
tp38
sI38
(I11
I62
tp39
sI39
(I12
I62
tp40
sI40
(I13
I62
tp41
sI41
(I14
I62
tp42
sI42
(I12
I62
tp43
sI43
(I10
I62
tp44
sI44
(I9
I62
tp45
sI45
(I7
I62
tp46
sI46
(I6
I62
tp47
sI47
(I5
I61
tp48
sI48
(I5
I60
tp49
sI49
(I5
I60
tp50
sI50
(I5
I58
tp51
sI51
(I5
I57
tp52
sI52
(I5
I56
tp53
sI53
(I5
I55
tp54
sI54
(I5
I53
tp55
sI55
(I6
I47
tp56
sI56
(I8
I42
tp57
sI57
(I10
I37
tp58
s(dp59
I5
(I47
I54
tp60
sI6
(I11
I55
tp61
sI7
(I9
I55
tp62
sI8
(I8
I56
tp63
sI9
(I7
I56
tp64
sI10
(I6
I57
tp65
sI11
(I6
I57
tp66
sI12
(I5
I57
tp67
sI13
(I4
I57
tp68
sI14
(I3
I57
tp69
sI15
(I2
I57
tp70
sI16
(I2
I57
tp71
sI17
(I2
I57
tp72
sI18
(I1
I57
tp73
sI19
(I1
I57
tp74
sI20
(I1
I57
tp75
sI21
(I2
I57
tp76
sI22
(I2
I57
tp77
sI23
(I2
I57
tp78
sI24
(I2
I57
tp79
sI25
(I2
I57
tp80
sI26
(I3
I57
tp81
sI27
(I3
I57
tp82
sI28
(I3
I57
tp83
sI29
(I3
I57
tp84
sI30
(I3
I57
tp85
sI31
(I3
I57
tp86
sI32
(I4
I57
tp87
sI33
(I4
I57
tp88
sI34
(I4
I57
tp89
sI35
(I5
I57
tp90
sI36
(I5
I57
tp91
sI37
(I5
I57
tp92
sI38
(I6
I56
tp93
sI39
(I6
I56
tp94
sI40
(I6
I56
tp95
sI41
(I7
I56
tp96
sI42
(I7
I56
tp97
sI43
(I8
I55
tp98
sI44
(I8
I55
tp99
sI45
(I8
I55
tp100
sI46
(I9
I55
tp101
sI47
(I9
I55
tp102
sI48
(I10
I54
tp103
sI49
(I11
I54
tp104
sI50
(I12
I54
tp105
sI51
(I13
I54
tp106
sI52
(I14
I54
tp107
sI53
(I15
I54
tp108
sI54
(I16
I53
tp109
sI55
(I18
I53
tp110
sI56
(I21
I52
tp111
sI57
(I23
I51
tp112
sI58
(I25
I50
tp113
sI59
(I27
I49
tp114
sI60
(I28
I49
tp115
sI61
(I29
I47
tp116
sI62
(I31
I46
tp117
stp118
.