((dp1
I0
(I69
I75
tp2
sI1
(I65
I77
tp3
sI2
(I63
I78
tp4
sI3
(I62
I80
tp5
sI4
(I61
I81
tp6
sI5
(I60
I82
tp7
sI6
(I60
I83
tp8
sI7
(I59
I84
tp9
sI8
(I59
I85
tp10
sI9
(I58
I86
tp11
sI10
(I58
I86
tp12
sI11
(I58
I86
tp13
sI12
(I57
I87
tp14
sI13
(I57
I88
tp15
sI14
(I57
I88
tp16
sI15
(I57
I88
tp17
sI16
(I57
I88
tp18
sI17
(I57
I88
tp19
sI18
(I56
I88
tp20
sI19
(I56
I88
tp21
sI20
(I55
I88
tp22
sI21
(I54
I87
tp23
sI22
(I53
I86
tp24
sI23
(I51
I86
tp25
sI24
(I50
I84
tp26
sI25
(I49
I81
tp27
sI26
(I31
I81
tp28
sI27
(I29
I81
tp29
sI28
(I28
I79
tp30
sI29
(I27
I129
tp31
sI30
(I26
I130
tp32
sI31
(I25
I131
tp33
sI32
(I24
I132
tp34
sI33
(I23
I133
tp35
sI34
(I22
I134
tp36
sI35
(I22
I135
tp37
sI36
(I21
I135
tp38
sI37
(I19
I136
tp39
sI38
(I17
I136
tp40
sI39
(I16
I137
tp41
sI40
(I14
I138
tp42
sI41
(I13
I138
tp43
sI42
(I12
I137
tp44
sI43
(I10
I137
tp45
sI44
(I8
I136
tp46
sI45
(I7
I136
tp47
sI46
(I5
I135
tp48
sI47
(I3
I134
tp49
sI48
(I2
I133
tp50
sI49
(I1
I133
tp51
sI50
(I1
I132
tp52
sI51
(I1
I131
tp53
sI52
(I1
I129
tp54
sI53
(I1
I128
tp55
sI54
(I1
I125
tp56
sI55
(I1
I124
tp57
sI56
(I3
I123
tp58
sI57
(I4
I122
tp59
sI58
(I4
I122
tp60
sI59
(I6
I121
tp61
sI60
(I7
I120
tp62
sI61
(I10
I120
tp63
sI62
(I31
I119
tp64
sI63
(I32
I119
tp65
sI64
(I33
I118
tp66
sI65
(I34
I117
tp67
sI66
(I35
I117
tp68
sI67
(I35
I116
tp69
sI68
(I35
I116
tp70
sI69
(I36
I115
tp71
sI70
(I36
I115
tp72
sI71
(I36
I114
tp73
sI72
(I37
I113
tp74
sI73
(I37
I113
tp75
sI74
(I37
I111
tp76
sI75
(I37
I110
tp77
sI76
(I37
I109
tp78
sI77
(I37
I107
tp79
sI78
(I37
I105
tp80
sI79
(I37
I66
tp81
sI80
(I37
I66
tp82
sI81
(I37
I66
tp83
sI82
(I36
I66
tp84
sI83
(I36
I66
tp85
sI84
(I36
I66
tp86
sI85
(I36
I66
tp87
sI86
(I36
I66
tp88
sI87
(I36
I66
tp89
sI88
(I35
I67
tp90
sI89
(I35
I67
tp91
sI90
(I33
I71
tp92
sI91
(I32
I74
tp93
sI92
(I32
I78
tp94
sI93
(I31
I80
tp95
sI94
(I31
I85
tp96
sI95
(I31
I90
tp97
sI96
(I31
I93
tp98
sI97
(I30
I95
tp99
sI98
(I30
I97
tp100
sI99
(I30
I99
tp101
sI100
(I30
I101
tp102
sI101
(I30
I103
tp103
sI102
(I29
I105
tp104
sI103
(I29
I107
tp105
sI104
(I29
I109
tp106
sI105
(I29
I111
tp107
sI106
(I28
I113
tp108
sI107
(I28
I114
tp109
sI108
(I28
I115
tp110
sI109
(I28
I117
tp111
sI110
(I28
I118
tp112
sI111
(I27
I119
tp113
sI112
(I27
I120
tp114
sI113
(I27
I121
tp115
sI114
(I27
I122
tp116
sI115
(I27
I122
tp117
sI116
(I27
I122
tp118
sI117
(I27
I122
tp119
sI118
(I27
I122
tp120
sI119
(I27
I123
tp121
sI120
(I27
I123
tp122
sI121
(I27
I123
tp123
sI122
(I27
I123
tp124
sI123
(I27
I124
tp125
sI124
(I27
I124
tp126
sI125
(I27
I124
tp127
sI126
(I27
I125
tp128
sI127
(I27
I125
tp129
sI128
(I27
I125
tp130
sI129
(I26
I126
tp131
sI130
(I26
I126
tp132
sI131
(I26
I127
tp133
sI132
(I26
I127
tp134
sI133
(I26
I128
tp135
sI134
(I26
I128
tp136
sI135
(I26
I128
tp137
sI136
(I26
I129
tp138
sI137
(I25
I129
tp139
sI138
(I25
I130
tp140
sI139
(I25
I130
tp141
sI140
(I25
I130
tp142
sI141
(I25
I131
tp143
sI142
(I25
I131
tp144
sI143
(I25
I132
tp145
sI144
(I25
I132
tp146
sI145
(I26
I132
tp147
sI146
(I26
I133
tp148
sI147
(I26
I133
tp149
sI148
(I26
I133
tp150
sI149
(I26
I134
tp151
sI150
(I26
I134
tp152
sI151
(I26
I134
tp153
sI152
(I26
I135
tp154
sI153
(I27
I135
tp155
sI154
(I27
I135
tp156
sI155
(I27
I135
tp157
sI156
(I27
I136
tp158
sI157
(I27
I136
tp159
sI158
(I27
I136
tp160
sI159
(I27
I137
tp161
sI160
(I27
I137
tp162
sI161
(I27
I138
tp163
sI162
(I27
I138
tp164
sI163
(I28
I139
tp165
sI164
(I28
I139
tp166
sI165
(I28
I139
tp167
sI166
(I28
I140
tp168
sI167
(I28
I140
tp169
sI168
(I28
I140
tp170
sI169
(I28
I141
tp171
sI170
(I28
I141
tp172
sI171
(I28
I141
tp173
sI172
(I29
I142
tp174
sI173
(I29
I142
tp175
sI174
(I29
I142
tp176
sI175
(I29
I143
tp177
sI176
(I29
I143
tp178
sI177
(I30
I142
tp179
sI178
(I30
I142
tp180
sI179
(I30
I142
tp181
sI180
(I30
I142
tp182
sI181
(I30
I142
tp183
sI182
(I30
I143
tp184
sI183
(I31
I143
tp185
sI184
(I31
I144
tp186
sI185
(I31
I144
tp187
sI186
(I31
I145
tp188
sI187
(I32
I145
tp189
sI188
(I32
I146
tp190
sI189
(I32
I147
tp191
sI190
(I32
I147
tp192
sI191
(I32
I148
tp193
sI192
(I32
I148
tp194
sI193
(I32
I149
tp195
sI194
(I32
I150
tp196
sI195
(I32
I150
tp197
sI196
(I32
I151
tp198
sI197
(I33
I152
tp199
sI198
(I33
I152
tp200
sI199
(I34
I153
tp201
sI200
(I34
I153
tp202
sI201
(I34
I153
tp203
sI202
(I34
I153
tp204
sI203
(I35
I153
tp205
sI204
(I35
I153
tp206
sI205
(I35
I152
tp207
sI206
(I35
I63
tp208
sI207
(I36
I63
tp209
sI208
(I36
I63
tp210
sI209
(I36
I63
tp211
sI210
(I37
I63
tp212
sI211
(I37
I63
tp213
sI212
(I38
I63
tp214
sI213
(I38
I63
tp215
sI214
(I39
I63
tp216
sI215
(I39
I62
tp217
sI216
(I39
I62
tp218
sI217
(I40
I62
tp219
sI218
(I40
I62
tp220
sI219
(I41
I62
tp221
sI220
(I41
I62
tp222
sI221
(I42
I61
tp223
sI222
(I43
I61
tp224
sI223
(I43
I61
tp225
sI224
(I44
I60
tp226
sI225
(I45
I59
tp227
sI226
(I46
I59
tp228
sI227
(I47
I59
tp229
sI228
(I47
I59
tp230
sI229
(I47
I59
tp231
sI230
(I46
I59
tp232
sI231
(I45
I59
tp233
sI232
(I45
I59
tp234
sI233
(I45
I59
tp235
sI234
(I45
I59
tp236
sI235
(I45
I59
tp237
sI236
(I44
I59
tp238
sI237
(I44
I59
tp239
sI238
(I43
I58
tp240
sI239
(I43
I58
tp241
sI240
(I42
I58
tp242
sI241
(I42
I58
tp243
sI242
(I40
I58
tp244
sI243
(I40
I58
tp245
sI244
(I39
I58
tp246
sI245
(I39
I58
tp247
sI246
(I38
I58
tp248
sI247
(I38
I58
tp249
sI248
(I38
I58
tp250
sI249
(I39
I57
tp251
sI250
(I40
I54
tp252
s(dp253
I0
(I49
I53
tp254
sI1
(I49
I55
tp255
sI2
(I48
I55
tp256
sI3
(I47
I56
tp257
sI4
(I47
I58
tp258
sI5
(I46
I58
tp259
sI6
(I46
I59
tp260
sI7
(I45
I60
tp261
sI8
(I44
I60
tp262
sI9
(I44
I60
tp263
sI10
(I43
I61
tp264
sI11
(I43
I61
tp265
sI12
(I42
I61
tp266
sI13
(I41
I61
tp267
sI14
(I40
I61
tp268
sI15
(I40
I61
tp269
sI16
(I39
I61
tp270
sI17
(I38
I61
tp271
sI18
(I38
I61
tp272
sI19
(I37
I61
tp273
sI20
(I37
I61
tp274
sI21
(I36
I61
tp275
sI22
(I34
I61
tp276
sI23
(I33
I61
tp277
sI24
(I32
I61
tp278
sI25
(I31
I144
tp279
sI26
(I30
I152
tp280
sI27
(I29
I162
tp281
sI28
(I28
I171
tp282
sI29
(I27
I176
tp283
sI30
(I27
I182
tp284
sI31
(I26
I186
tp285
sI32
(I26
I196
tp286
sI33
(I26
I198
tp287
sI34
(I26
I202
tp288
sI35
(I26
I206
tp289
sI36
(I26
I209
tp290
sI37
(I26
I211
tp291
sI38
(I26
I248
tp292
sI39
(I26
I249
tp293
sI40
(I26
I249
tp294
sI41
(I26
I249
tp295
sI42
(I27
I249
tp296
sI43
(I27
I249
tp297
sI44
(I27
I249
tp298
sI45
(I26
I249
tp299
sI46
(I26
I249
tp300
sI47
(I26
I249
tp301
sI48
(I26
I249
tp302
sI49
(I25
I249
tp303
sI50
(I24
I249
tp304
sI51
(I23
I249
tp305
sI52
(I23
I249
tp306
sI53
(I22
I249
tp307
sI54
(I21
I249
tp308
sI55
(I20
I249
tp309
sI56
(I18
I249
tp310
sI57
(I12
I249
tp311
sI58
(I9
I248
tp312
sI59
(I7
I237
tp313
sI60
(I5
I224
tp314
sI61
(I4
I223
tp315
sI62
(I3
I220
tp316
sI63
(I2
I214
tp317
sI64
(I2
I127
tp318
sI65
(I1
I127
tp319
sI66
(I1
I127
tp320
sI67
(I1
I127
tp321
sI68
(I1
I127
tp322
sI69
(I1
I127
tp323
sI70
(I1
I127
tp324
sI71
(I1
I127
tp325
sI72
(I1
I127
tp326
sI73
(I1
I127
tp327
sI74
(I1
I127
tp328
sI75
(I1
I127
tp329
sI76
(I1
I127
tp330
sI77
(I1
I127
tp331
sI78
(I2
I127
tp332
sI79
(I3
I127
tp333
sI80
(I3
I127
tp334
sI81
(I4
I127
tp335
sI82
(I5
I127
tp336
sI83
(I6
I127
tp337
sI84
(I7
I127
tp338
sI85
(I8
I127
tp339
sI86
(I9
I127
tp340
sI87
(I12
I127
tp341
sI88
(I13
I128
tp342
sI89
(I43
I128
tp343
sI90
(I45
I128
tp344
sI91
(I48
I128
tp345
sI92
(I52
I128
tp346
sI93
(I54
I128
tp347
sI94
(I55
I128
tp348
sI95
(I56
I129
tp349
sI96
(I58
I129
tp350
sI97
(I60
I130
tp351
sI98
(I61
I132
tp352
sI99
(I62
I134
tp353
sI100
(I63
I138
tp354
sI101
(I64
I142
tp355
sI102
(I64
I147
tp356
sI103
(I64
I150
tp357
sI104
(I63
I154
tp358
sI105
(I62
I158
tp359
sI106
(I62
I162
tp360
sI107
(I61
I166
tp361
sI108
(I60
I170
tp362
sI109
(I59
I172
tp363
sI110
(I58
I175
tp364
sI111
(I57
I176
tp365
sI112
(I56
I178
tp366
sI113
(I55
I179
tp367
sI114
(I54
I180
tp368
sI115
(I52
I181
tp369
sI116
(I51
I182
tp370
sI117
(I39
I183
tp371
sI118
(I31
I184
tp372
sI119
(I30
I185
tp373
sI120
(I31
I185
tp374
sI121
(I32
I186
tp375
sI122
(I32
I186
tp376
sI123
(I33
I188
tp377
sI124
(I32
I189
tp378
sI125
(I30
I190
tp379
sI126
(I29
I191
tp380
sI127
(I29
I192
tp381
sI128
(I29
I193
tp382
sI129
(I29
I193
tp383
sI130
(I30
I194
tp384
sI131
(I31
I194
tp385
sI132
(I32
I195
tp386
sI133
(I33
I195
tp387
sI134
(I34
I196
tp388
sI135
(I35
I197
tp389
sI136
(I37
I198
tp390
sI137
(I39
I199
tp391
sI138
(I40
I200
tp392
sI139
(I163
I201
tp393
sI140
(I166
I201
tp394
sI141
(I169
I202
tp395
sI142
(I172
I203
tp396
sI143
(I175
I203
tp397
sI144
(I184
I204
tp398
sI145
(I186
I204
tp399
sI146
(I188
I204
tp400
sI147
(I189
I205
tp401
sI148
(I191
I205
tp402
sI149
(I193
I205
tp403
sI150
(I194
I205
tp404
sI151
(I196
I205
tp405
sI152
(I197
I205
tp406
sI153
(I199
I204
tp407
sI154
(I201
I203
tp408
stp409
.