((dp1
I0
(I69
I75
tp2
sI1
(I65
I77
tp3
sI2
(I63
I78
tp4
sI3
(I62
I80
tp5
sI4
(I61
I81
tp6
sI5
(I60
I82
tp7
sI6
(I60
I83
tp8
sI7
(I59
I84
tp9
sI8
(I59
I85
tp10
sI9
(I58
I86
tp11
sI10
(I58
I86
tp12
sI11
(I58
I86
tp13
sI12
(I57
I87
tp14
sI13
(I57
I88
tp15
sI14
(I57
I88
tp16
sI15
(I57
I88
tp17
sI16
(I57
I89
tp18
sI17
(I57
I89
tp19
sI18
(I56
I90
tp20
sI19
(I56
I90
tp21
sI20
(I55
I90
tp22
sI21
(I54
I90
tp23
sI22
(I53
I89
tp24
sI23
(I51
I88
tp25
sI24
(I50
I81
tp26
sI25
(I49
I81
tp27
sI26
(I31
I81
tp28
sI27
(I29
I81
tp29
sI28
(I28
I79
tp30
sI29
(I27
I129
tp31
sI30
(I26
I130
tp32
sI31
(I25
I131
tp33
sI32
(I24
I132
tp34
sI33
(I23
I133
tp35
sI34
(I22
I134
tp36
sI35
(I22
I135
tp37
sI36
(I21
I135
tp38
sI37
(I19
I136
tp39
sI38
(I17
I136
tp40
sI39
(I16
I137
tp41
sI40
(I14
I137
tp42
sI41
(I13
I137
tp43
sI42
(I12
I137
tp44
sI43
(I10
I137
tp45
sI44
(I8
I136
tp46
sI45
(I7
I136
tp47
sI46
(I5
I135
tp48
sI47
(I3
I134
tp49
sI48
(I2
I133
tp50
sI49
(I1
I133
tp51
sI50
(I1
I132
tp52
sI51
(I1
I131
tp53
sI52
(I1
I129
tp54
sI53
(I1
I128
tp55
sI54
(I1
I125
tp56
sI55
(I1
I124
tp57
sI56
(I3
I123
tp58
sI57
(I4
I122
tp59
sI58
(I4
I122
tp60
sI59
(I6
I121
tp61
sI60
(I7
I120
tp62
sI61
(I10
I120
tp63
sI62
(I31
I119
tp64
sI63
(I32
I119
tp65
sI64
(I33
I118
tp66
sI65
(I34
I117
tp67
sI66
(I35
I117
tp68
sI67
(I35
I116
tp69
sI68
(I35
I116
tp70
sI69
(I36
I115
tp71
sI70
(I36
I115
tp72
sI71
(I36
I114
tp73
sI72
(I37
I113
tp74
sI73
(I37
I113
tp75
sI74
(I37
I111
tp76
sI75
(I37
I110
tp77
sI76
(I37
I109
tp78
sI77
(I37
I107
tp79
sI78
(I37
I105
tp80
sI79
(I37
I66
tp81
sI80
(I37
I66
tp82
sI81
(I37
I66
tp83
sI82
(I36
I66
tp84
sI83
(I36
I66
tp85
sI84
(I36
I66
tp86
sI85
(I36
I66
tp87
sI86
(I36
I66
tp88
sI87
(I36
I66
tp89
sI88
(I35
I67
tp90
sI89
(I35
I67
tp91
sI90
(I33
I70
tp92
sI91
(I32
I74
tp93
sI92
(I32
I78
tp94
sI93
(I31
I80
tp95
sI94
(I31
I83
tp96
sI95
(I31
I87
tp97
sI96
(I31
I90
tp98
sI97
(I30
I92
tp99
sI98
(I30
I94
tp100
sI99
(I30
I96
tp101
sI100
(I30
I98
tp102
sI101
(I30
I100
tp103
sI102
(I29
I102
tp104
sI103
(I29
I104
tp105
sI104
(I29
I106
tp106
sI105
(I29
I109
tp107
sI106
(I28
I111
tp108
sI107
(I28
I112
tp109
sI108
(I28
I114
tp110
sI109
(I28
I115
tp111
sI110
(I28
I117
tp112
sI111
(I27
I118
tp113
sI112
(I27
I119
tp114
sI113
(I27
I120
tp115
sI114
(I27
I121
tp116
sI115
(I27
I121
tp117
sI116
(I27
I122
tp118
sI117
(I27
I122
tp119
sI118
(I27
I122
tp120
sI119
(I27
I122
tp121
sI120
(I27
I123
tp122
sI121
(I27
I123
tp123
sI122
(I27
I123
tp124
sI123
(I27
I123
tp125
sI124
(I27
I123
tp126
sI125
(I27
I123
tp127
sI126
(I27
I123
tp128
sI127
(I27
I123
tp129
sI128
(I27
I123
tp130
sI129
(I26
I124
tp131
sI130
(I26
I124
tp132
sI131
(I26
I124
tp133
sI132
(I26
I124
tp134
sI133
(I26
I124
tp135
sI134
(I26
I124
tp136
sI135
(I26
I124
tp137
sI136
(I26
I124
tp138
sI137
(I25
I124
tp139
sI138
(I25
I124
tp140
sI139
(I25
I124
tp141
sI140
(I25
I124
tp142
sI141
(I25
I124
tp143
sI142
(I25
I125
tp144
sI143
(I25
I125
tp145
sI144
(I25
I125
tp146
sI145
(I26
I125
tp147
sI146
(I26
I125
tp148
sI147
(I26
I125
tp149
sI148
(I26
I125
tp150
sI149
(I26
I125
tp151
sI150
(I26
I125
tp152
sI151
(I26
I125
tp153
sI152
(I26
I125
tp154
sI153
(I27
I125
tp155
sI154
(I27
I125
tp156
sI155
(I27
I125
tp157
sI156
(I27
I125
tp158
sI157
(I27
I125
tp159
sI158
(I27
I125
tp160
sI159
(I27
I125
tp161
sI160
(I27
I125
tp162
sI161
(I27
I125
tp163
sI162
(I27
I125
tp164
sI163
(I28
I125
tp165
sI164
(I28
I125
tp166
sI165
(I28
I125
tp167
sI166
(I28
I125
tp168
sI167
(I28
I125
tp169
sI168
(I28
I125
tp170
sI169
(I28
I125
tp171
sI170
(I28
I125
tp172
sI171
(I28
I125
tp173
sI172
(I29
I125
tp174
sI173
(I29
I125
tp175
sI174
(I29
I125
tp176
sI175
(I29
I125
tp177
sI176
(I29
I125
tp178
sI177
(I30
I125
tp179
sI178
(I30
I124
tp180
sI179
(I30
I124
tp181
sI180
(I30
I124
tp182
sI181
(I30
I124
tp183
sI182
(I30
I124
tp184
sI183
(I31
I124
tp185
sI184
(I31
I124
tp186
sI185
(I31
I124
tp187
sI186
(I31
I124
tp188
sI187
(I32
I124
tp189
sI188
(I32
I123
tp190
sI189
(I32
I123
tp191
sI190
(I32
I123
tp192
sI191
(I32
I123
tp193
sI192
(I32
I122
tp194
sI193
(I32
I120
tp195
sI194
(I32
I119
tp196
sI195
(I32
I118
tp197
sI196
(I32
I118
tp198
sI197
(I33
I118
tp199
sI198
(I33
I118
tp200
sI199
(I34
I118
tp201
sI200
(I34
I118
tp202
sI201
(I34
I118
tp203
sI202
(I34
I118
tp204
sI203
(I35
I118
tp205
sI204
(I35
I118
tp206
sI205
(I35
I118
tp207
sI206
(I35
I117
tp208
sI207
(I36
I117
tp209
sI208
(I36
I117
tp210
sI209
(I36
I117
tp211
sI210
(I37
I117
tp212
sI211
(I37
I117
tp213
sI212
(I38
I117
tp214
sI213
(I38
I117
tp215
sI214
(I39
I117
tp216
sI215
(I39
I117
tp217
sI216
(I39
I117
tp218
sI217
(I40
I117
tp219
sI218
(I40
I117
tp220
sI219
(I41
I117
tp221
sI220
(I41
I116
tp222
sI221
(I42
I116
tp223
sI222
(I43
I115
tp224
sI223
(I43
I61
tp225
sI224
(I44
I60
tp226
sI225
(I45
I59
tp227
sI226
(I46
I59
tp228
sI227
(I47
I59
tp229
sI228
(I47
I59
tp230
sI229
(I46
I59
tp231
sI230
(I45
I59
tp232
sI231
(I45
I59
tp233
sI232
(I45
I59
tp234
sI233
(I45
I59
tp235
sI234
(I45
I59
tp236
sI235
(I44
I59
tp237
sI236
(I44
I59
tp238
sI237
(I43
I58
tp239
sI238
(I43
I58
tp240
sI239
(I42
I58
tp241
sI240
(I42
I58
tp242
sI241
(I40
I58
tp243
sI242
(I40
I58
tp244
sI243
(I39
I58
tp245
sI244
(I39
I58
tp246
sI245
(I38
I58
tp247
sI246
(I38
I58
tp248
sI247
(I38
I58
tp249
sI248
(I39
I57
tp250
sI249
(I40
I54
tp251
s(dp252
I0
(I49
I53
tp253
sI1
(I49
I55
tp254
sI2
(I48
I55
tp255
sI3
(I47
I56
tp256
sI4
(I47
I58
tp257
sI5
(I46
I58
tp258
sI6
(I46
I59
tp259
sI7
(I45
I60
tp260
sI8
(I44
I60
tp261
sI9
(I44
I60
tp262
sI10
(I43
I61
tp263
sI11
(I43
I61
tp264
sI12
(I42
I61
tp265
sI13
(I41
I61
tp266
sI14
(I40
I61
tp267
sI15
(I40
I61
tp268
sI16
(I39
I61
tp269
sI17
(I38
I61
tp270
sI18
(I38
I61
tp271
sI19
(I37
I61
tp272
sI20
(I37
I61
tp273
sI21
(I36
I61
tp274
sI22
(I34
I61
tp275
sI23
(I33
I61
tp276
sI24
(I32
I61
tp277
sI25
(I31
I144
tp278
sI26
(I30
I152
tp279
sI27
(I29
I162
tp280
sI28
(I28
I171
tp281
sI29
(I27
I176
tp282
sI30
(I27
I182
tp283
sI31
(I26
I186
tp284
sI32
(I26
I196
tp285
sI33
(I26
I198
tp286
sI34
(I26
I202
tp287
sI35
(I26
I206
tp288
sI36
(I26
I209
tp289
sI37
(I26
I211
tp290
sI38
(I26
I247
tp291
sI39
(I26
I248
tp292
sI40
(I26
I248
tp293
sI41
(I26
I248
tp294
sI42
(I27
I248
tp295
sI43
(I27
I248
tp296
sI44
(I27
I248
tp297
sI45
(I26
I248
tp298
sI46
(I26
I248
tp299
sI47
(I26
I248
tp300
sI48
(I26
I248
tp301
sI49
(I25
I248
tp302
sI50
(I24
I248
tp303
sI51
(I23
I248
tp304
sI52
(I23
I248
tp305
sI53
(I22
I248
tp306
sI54
(I21
I248
tp307
sI55
(I20
I248
tp308
sI56
(I18
I248
tp309
sI57
(I12
I248
tp310
sI58
(I9
I247
tp311
sI59
(I7
I236
tp312
sI60
(I5
I224
tp313
sI61
(I4
I223
tp314
sI62
(I3
I220
tp315
sI63
(I2
I214
tp316
sI64
(I2
I128
tp317
sI65
(I1
I128
tp318
sI66
(I1
I128
tp319
sI67
(I1
I129
tp320
sI68
(I1
I129
tp321
sI69
(I1
I129
tp322
sI70
(I1
I130
tp323
sI71
(I1
I130
tp324
sI72
(I1
I130
tp325
sI73
(I1
I130
tp326
sI74
(I1
I130
tp327
sI75
(I1
I130
tp328
sI76
(I1
I130
tp329
sI77
(I1
I130
tp330
sI78
(I2
I130
tp331
sI79
(I3
I130
tp332
sI80
(I3
I131
tp333
sI81
(I4
I131
tp334
sI82
(I5
I131
tp335
sI83
(I6
I131
tp336
sI84
(I7
I131
tp337
sI85
(I8
I132
tp338
sI86
(I9
I132
tp339
sI87
(I12
I132
tp340
sI88
(I13
I132
tp341
sI89
(I16
I132
tp342
sI90
(I18
I132
tp343
sI91
(I48
I133
tp344
sI92
(I52
I133
tp345
sI93
(I54
I133
tp346
sI94
(I55
I134
tp347
sI95
(I56
I178
tp348
sI96
(I58
I181
tp349
sI97
(I60
I185
tp350
sI98
(I61
I188
tp351
sI99
(I62
I190
tp352
sI100
(I63
I197
tp353
sI101
(I64
I199
tp354
sI102
(I64
I201
tp355
sI103
(I64
I204
tp356
sI104
(I63
I212
tp357
sI105
(I62
I215
tp358
sI106
(I62
I217
tp359
sI107
(I61
I218
tp360
sI108
(I60
I219
tp361
sI109
(I59
I220
tp362
sI110
(I58
I221
tp363
sI111
(I57
I221
tp364
sI112
(I56
I222
tp365
sI113
(I55
I222
tp366
sI114
(I54
I222
tp367
sI115
(I52
I222
tp368
sI116
(I51
I221
tp369
sI117
(I39
I219
tp370
sI118
(I31
I205
tp371
sI119
(I30
I194
tp372
sI120
(I31
I193
tp373
sI121
(I32
I192
tp374
sI122
(I32
I192
tp375
sI123
(I33
I191
tp376
sI124
(I32
I187
tp377
sI125
(I30
I177
tp378
sI126
(I29
I53
tp379
sI127
(I29
I53
tp380
sI128
(I29
I53
tp381
sI129
(I29
I52
tp382
sI130
(I30
I51
tp383
sI131
(I31
I51
tp384
sI132
(I32
I50
tp385
sI133
(I33
I49
tp386
sI134
(I34
I47
tp387
sI135
(I35
I46
tp388
sI136
(I37
I45
tp389
sI137
(I39
I43
tp390
sI138
(I40
I41
tp391
stp392
.