(dp1
S'block'
p2
(I46
I0
tp3
sS'crouch'
p4
(I56
I0
tp5
sS'crouchblock'
p6
(I54
I0
tp7
sS'm-00'
p8
(I51
I0
tp9
sS'fallforw'
p10
(I49
I0
tp11
sS'jump-00'
p12
(I41
I0
tp13
sS'fall'
p14
(I46
I0
tp15
sS'stand'
p16
(I38
I0
tp17
sS'm-01'
p18
(I52
I0
tp19
sS'm-02'
p20
(I83
I0
tp21
sS'hit-00'
p22
(I51
I0
tp23
sS'dash-00'
p24
(I65
I0
tp25
sS'dash-01'
p26
(I60
I0
tp27
s.