((dp1
I51
(I95
I97
tp2
sI52
(I93
I97
tp3
sI53
(I90
I98
tp4
sI54
(I89
I99
tp5
sI55
(I87
I100
tp6
sI56
(I86
I101
tp7
sI57
(I87
I103
tp8
sI58
(I88
I105
tp9
sI59
(I89
I105
tp10
sI60
(I90
I106
tp11
sI61
(I90
I107
tp12
sI62
(I91
I108
tp13
sI63
(I93
I109
tp14
sI64
(I97
I110
tp15
sI65
(I97
I110
tp16
sI66
(I98
I111
tp17
sI67
(I100
I112
tp18
sI68
(I101
I113
tp19
sI69
(I102
I115
tp20
sI70
(I105
I117
tp21
sI71
(I114
I119
tp22
sI72
(I116
I120
tp23
sI73
(I117
I122
tp24
sI74
(I119
I124
tp25
sI75
(I121
I126
tp26
sI76
(I123
I128
tp27
sI77
(I124
I129
tp28
sI78
(I126
I131
tp29
sI79
(I129
I133
tp30
sI80
(I131
I135
tp31
sI81
(I133
I137
tp32
sI82
(I135
I139
tp33
sI83
(I137
I141
tp34
sI84
(I138
I143
tp35
sI85
(I140
I145
tp36
sI86
(I142
I146
tp37
sI87
(I144
I149
tp38
sI88
(I146
I151
tp39
sI89
(I148
I153
tp40
sI90
(I150
I155
tp41
sI91
(I152
I156
tp42
sI92
(I154
I158
tp43
sI93
(I156
I160
tp44
sI94
(I158
I162
tp45
sI95
(I160
I164
tp46
sI96
(I163
I165
tp47
sI97
(I166
I165
tp48
s(dp49
I128
(I76
I78
tp50
sI129
(I77
I79
tp51
sI130
(I78
I79
tp52
sI131
(I78
I80
tp53
sI132
(I79
I80
tp54
sI133
(I79
I81
tp55
sI134
(I80
I81
tp56
sI135
(I80
I82
tp57
sI136
(I81
I82
tp58
sI137
(I81
I83
tp59
sI138
(I82
I84
tp60
sI139
(I82
I84
tp61
sI140
(I83
I85
tp62
sI141
(I83
I85
tp63
sI142
(I84
I86
tp64
sI143
(I84
I86
tp65
sI144
(I85
I87
tp66
sI145
(I85
I87
tp67
sI146
(I86
I88
tp68
sI147
(I87
I88
tp69
sI148
(I87
I89
tp70
sI149
(I87
I89
tp71
sI150
(I88
I90
tp72
sI151
(I88
I90
tp73
sI152
(I89
I91
tp74
sI153
(I89
I91
tp75
sI154
(I90
I92
tp76
sI155
(I90
I92
tp77
sI156
(I91
I93
tp78
sI157
(I92
I93
tp79
sI158
(I92
I94
tp80
sI159
(I93
I94
tp81
sI160
(I93
I95
tp82
sI161
(I94
I95
tp83
sI162
(I94
I95
tp84
sI163
(I95
I96
tp85
sI164
(I95
I96
tp86
sI165
(I96
I96
tp87
sI166
(I97
I97
tp88
sI86
(I56
I56
tp89
sI87
(I55
I57
tp90
sI88
(I55
I58
tp91
sI89
(I54
I59
tp92
sI90
(I53
I61
tp93
sI91
(I53
I62
tp94
sI92
(I53
I62
tp95
sI93
(I52
I63
tp96
sI94
(I52
I63
tp97
sI95
(I51
I62
tp98
sI96
(I51
I62
tp99
sI97
(I51
I65
tp100
sI98
(I53
I66
tp101
sI99
(I54
I66
tp102
sI100
(I55
I67
tp103
sI101
(I56
I68
tp104
sI102
(I57
I69
tp105
sI103
(I57
I69
tp106
sI104
(I58
I69
tp107
sI105
(I58
I70
tp108
sI106
(I60
I70
tp109
sI107
(I61
I70
tp110
sI108
(I62
I70
tp111
sI109
(I63
I70
tp112
sI110
(I64
I69
tp113
sI111
(I66
I69
tp114
sI112
(I67
I70
tp115
sI113
(I68
I70
tp116
sI114
(I69
I71
tp117
sI115
(I69
I71
tp118
sI116
(I70
I72
tp119
sI117
(I70
I73
tp120
sI118
(I71
I73
tp121
sI119
(I71
I74
tp122
sI120
(I72
I74
tp123
sI121
(I73
I75
tp124
sI122
(I73
I75
tp125
sI123
(I74
I76
tp126
sI124
(I74
I77
tp127
sI125
(I75
I77
tp128
sI126
(I75
I78
tp129
sI127
(I76
I78
tp130
stp131
.