((dp1
I0
(I71
I71
tp2
sI1
(I72
I72
tp3
sI2
(I51
I73
tp4
sI3
(I46
I74
tp5
sI4
(I43
I75
tp6
sI5
(I41
I76
tp7
sI6
(I47
I77
tp8
sI7
(I43
I77
tp9
sI8
(I40
I78
tp10
sI9
(I37
I78
tp11
sI10
(I35
I79
tp12
sI11
(I33
I79
tp13
sI12
(I30
I80
tp14
sI13
(I28
I80
tp15
sI14
(I26
I80
tp16
sI15
(I25
I80
tp17
sI16
(I24
I80
tp18
sI17
(I54
I80
tp19
sI18
(I60
I80
tp20
sI19
(I63
I79
tp21
sI20
(I65
I79
tp22
sI21
(I67
I78
tp23
sI22
(I68
I77
tp24
sI23
(I69
I77
tp25
sI24
(I69
I77
tp26
sI25
(I70
I78
tp27
sI26
(I70
I79
tp28
sI27
(I53
I79
tp29
sI28
(I51
I79
tp30
sI29
(I50
I80
tp31
sI30
(I49
I80
tp32
sI31
(I49
I81
tp33
sI32
(I49
I82
tp34
sI33
(I49
I82
tp35
sI34
(I48
I83
tp36
sI35
(I48
I83
tp37
sI36
(I48
I83
tp38
sI37
(I47
I83
tp39
sI38
(I47
I83
tp40
sI39
(I47
I83
tp41
sI40
(I47
I84
tp42
sI41
(I47
I84
tp43
sI42
(I47
I85
tp44
sI43
(I46
I85
tp45
sI44
(I46
I85
tp46
sI45
(I46
I85
tp47
sI46
(I46
I86
tp48
sI47
(I46
I86
tp49
sI48
(I46
I86
tp50
sI49
(I46
I87
tp51
sI50
(I46
I87
tp52
sI51
(I45
I88
tp53
sI52
(I45
I89
tp54
sI53
(I35
I89
tp55
sI54
(I29
I88
tp56
sI55
(I28
I88
tp57
sI56
(I27
I88
tp58
sI57
(I26
I88
tp59
sI58
(I26
I87
tp60
sI59
(I26
I86
tp61
sI60
(I27
I85
tp62
sI61
(I27
I83
tp63
sI62
(I28
I78
tp64
sI63
(I29
I78
tp65
sI64
(I31
I78
tp66
sI65
(I34
I78
tp67
sI66
(I21
I79
tp68
sI67
(I20
I80
tp69
sI68
(I19
I81
tp70
sI69
(I18
I82
tp71
sI70
(I18
I83
tp72
sI71
(I17
I84
tp73
sI72
(I17
I85
tp74
sI73
(I17
I86
tp75
sI74
(I17
I87
tp76
sI75
(I17
I88
tp77
sI76
(I17
I89
tp78
sI77
(I16
I89
tp79
sI78
(I13
I90
tp80
sI79
(I10
I90
tp81
sI80
(I7
I91
tp82
sI81
(I4
I91
tp83
sI82
(I1
I92
tp84
sI83
(I1
I92
tp85
sI84
(I1
I93
tp86
sI85
(I1
I93
tp87
sI86
(I1
I94
tp88
sI87
(I1
I94
tp89
sI88
(I2
I95
tp90
sI89
(I3
I95
tp91
sI90
(I4
I96
tp92
sI91
(I5
I97
tp93
sI92
(I6
I97
tp94
sI93
(I7
I98
tp95
sI94
(I7
I99
tp96
sI95
(I7
I99
tp97
sI96
(I7
I100
tp98
sI97
(I7
I101
tp99
sI98
(I7
I101
tp100
sI99
(I6
I100
tp101
sI100
(I6
I98
tp102
sI101
(I6
I95
tp103
sI102
(I5
I93
tp104
sI103
(I5
I96
tp105
sI104
(I5
I101
tp106
sI105
(I2
I101
tp107
sI106
(I63
I101
tp108
sI107
(I85
I101
tp109
s(dp110
I0
(I83
I85
tp111
sI1
(I82
I87
tp112
sI2
(I82
I105
tp113
sI3
(I82
I105
tp114
sI4
(I81
I105
tp115
sI5
(I81
I105
tp116
sI6
(I81
I105
tp117
sI7
(I80
I105
tp118
sI8
(I80
I105
tp119
sI9
(I80
I105
tp120
sI10
(I79
I105
tp121
sI11
(I79
I105
tp122
sI12
(I79
I105
tp123
sI13
(I78
I105
tp124
sI14
(I78
I99
tp125
sI15
(I78
I99
tp126
sI16
(I77
I100
tp127
sI17
(I71
I100
tp128
sI18
(I69
I101
tp129
sI19
(I68
I101
tp130
sI20
(I67
I101
tp131
sI21
(I66
I102
tp132
sI22
(I66
I102
tp133
sI23
(I66
I102
tp134
sI24
(I16
I102
tp135
sI25
(I15
I103
tp136
sI26
(I14
I103
tp137
sI27
(I14
I103
tp138
sI28
(I13
I103
tp139
sI29
(I13
I103
tp140
sI30
(I12
I103
tp141
sI31
(I12
I103
tp142
sI32
(I12
I103
tp143
sI33
(I11
I103
tp144
sI34
(I11
I103
tp145
sI35
(I10
I103
tp146
sI36
(I10
I103
tp147
sI37
(I9
I102
tp148
sI38
(I9
I101
tp149
sI39
(I9
I100
tp150
sI40
(I8
I99
tp151
sI41
(I5
I98
tp152
sI42
(I5
I97
tp153
sI43
(I4
I97
tp154
sI44
(I4
I96
tp155
sI45
(I4
I96
tp156
sI46
(I3
I95
tp157
sI47
(I3
I94
tp158
sI48
(I3
I93
tp159
sI49
(I3
I92
tp160
sI50
(I3
I91
tp161
sI51
(I2
I89
tp162
sI52
(I2
I88
tp163
sI53
(I2
I87
tp164
sI54
(I2
I87
tp165
sI55
(I2
I103
tp166
sI56
(I2
I104
tp167
sI57
(I2
I104
tp168
sI58
(I2
I105
tp169
sI59
(I3
I105
tp170
sI60
(I3
I105
tp171
sI61
(I3
I105
tp172
sI62
(I3
I105
tp173
sI63
(I4
I106
tp174
sI64
(I4
I106
tp175
sI65
(I4
I106
tp176
sI66
(I4
I106
tp177
sI67
(I5
I106
tp178
sI68
(I5
I106
tp179
sI69
(I5
I106
tp180
sI70
(I6
I106
tp181
sI71
(I1
I106
tp182
sI72
(I1
I106
tp183
sI73
(I2
I106
tp184
sI74
(I3
I106
tp185
sI75
(I4
I106
tp186
sI76
(I5
I106
tp187
sI77
(I6
I106
tp188
sI78
(I8
I106
tp189
sI79
(I10
I106
tp190
sI80
(I12
I106
tp191
sI81
(I31
I106
tp192
sI82
(I32
I105
tp193
sI83
(I34
I105
tp194
sI84
(I40
I105
tp195
sI85
(I42
I106
tp196
sI86
(I46
I106
tp197
sI87
(I49
I106
tp198
sI88
(I51
I106
tp199
sI89
(I52
I106
tp200
sI90
(I78
I106
tp201
sI91
(I80
I106
tp202
sI92
(I82
I106
tp203
sI93
(I84
I106
tp204
sI94
(I86
I106
tp205
sI95
(I88
I106
tp206
sI96
(I90
I106
tp207
sI97
(I91
I106
tp208
sI98
(I93
I106
tp209
sI99
(I94
I106
tp210
sI100
(I96
I106
tp211
sI101
(I97
I106
tp212
sI102
(I105
I106
tp213
stp214
.