((dp1
I0
(I39
I39
tp2
sI1
(I38
I38
tp3
sI2
(I38
I38
tp4
sI3
(I37
I37
tp5
sI4
(I36
I37
tp6
sI5
(I36
I36
tp7
sI6
(I35
I36
tp8
sI7
(I34
I35
tp9
sI8
(I34
I39
tp10
sI9
(I33
I38
tp11
sI10
(I32
I38
tp12
sI11
(I32
I37
tp13
sI12
(I31
I37
tp14
sI13
(I31
I36
tp15
sI14
(I30
I36
tp16
sI15
(I30
I36
tp17
sI16
(I30
I35
tp18
sI17
(I30
I35
tp19
sI18
(I30
I35
tp20
sI19
(I29
I35
tp21
sI20
(I29
I34
tp22
sI21
(I29
I34
tp23
sI22
(I29
I40
tp24
sI23
(I29
I40
tp25
sI24
(I28
I40
tp26
sI25
(I28
I40
tp27
sI26
(I28
I40
tp28
sI27
(I28
I40
tp29
sI28
(I28
I41
tp30
sI29
(I28
I41
tp31
sI30
(I27
I41
tp32
sI31
(I27
I42
tp33
sI32
(I27
I42
tp34
sI33
(I27
I43
tp35
sI34
(I27
I44
tp36
sI35
(I27
I45
tp37
sI36
(I27
I45
tp38
sI37
(I28
I46
tp39
sI38
(I28
I46
tp40
sI39
(I28
I47
tp41
sI40
(I26
I47
tp42
sI41
(I26
I47
tp43
sI42
(I26
I47
tp44
sI43
(I27
I53
tp45
sI44
(I27
I53
tp46
sI45
(I28
I52
tp47
sI46
(I28
I52
tp48
sI47
(I29
I51
tp49
sI48
(I30
I51
tp50
sI49
(I31
I50
tp51
sI50
(I32
I49
tp52
sI51
(I34
I48
tp53
sI52
(I37
I48
tp54
sI53
(I11
I48
tp55
sI54
(I10
I48
tp56
sI55
(I10
I49
tp57
sI56
(I13
I50
tp58
sI57
(I12
I50
tp59
sI58
(I11
I51
tp60
sI59
(I11
I51
tp61
sI60
(I11
I51
tp62
sI61
(I10
I52
tp63
sI62
(I10
I53
tp64
sI63
(I11
I55
tp65
sI64
(I10
I87
tp66
sI65
(I9
I89
tp67
sI66
(I9
I91
tp68
sI67
(I8
I91
tp69
sI68
(I8
I62
tp70
sI69
(I8
I62
tp71
sI70
(I10
I63
tp72
sI71
(I12
I64
tp73
sI72
(I14
I64
tp74
sI73
(I25
I64
tp75
sI74
(I25
I64
tp76
sI75
(I25
I64
tp77
sI76
(I26
I63
tp78
sI77
(I27
I63
tp79
sI78
(I28
I62
tp80
sI79
(I29
I61
tp81
sI80
(I30
I59
tp82
sI81
(I9
I58
tp83
sI82
(I7
I55
tp84
sI83
(I5
I54
tp85
sI84
(I3
I53
tp86
sI85
(I1
I51
tp87
sI86
(I1
I51
tp88
sI87
(I1
I53
tp89
sI88
(I1
I54
tp90
sI89
(I1
I55
tp91
sI90
(I2
I62
tp92
sI91
(I3
I63
tp93
sI92
(I3
I62
tp94
sI93
(I4
I62
tp95
sI94
(I4
I61
tp96
sI95
(I5
I61
tp97
sI96
(I6
I63
tp98
sI97
(I6
I64
tp99
sI98
(I7
I65
tp100
sI99
(I7
I66
tp101
sI100
(I8
I68
tp102
sI101
(I8
I69
tp103
sI102
(I9
I70
tp104
sI103
(I10
I72
tp105
sI104
(I11
I73
tp106
sI105
(I12
I74
tp107
sI106
(I13
I75
tp108
sI107
(I14
I76
tp109
sI108
(I17
I77
tp110
sI109
(I16
I77
tp111
sI110
(I15
I78
tp112
sI111
(I13
I78
tp113
sI112
(I12
I78
tp114
sI113
(I11
I79
tp115
sI114
(I10
I80
tp116
sI115
(I10
I81
tp117
sI116
(I10
I81
tp118
sI117
(I10
I81
tp119
sI118
(I10
I81
tp120
sI119
(I10
I80
tp121
sI120
(I10
I80
tp122
sI121
(I10
I80
tp123
sI122
(I10
I80
tp124
sI123
(I10
I79
tp125
sI124
(I10
I79
tp126
sI125
(I10
I79
tp127
sI126
(I10
I79
tp128
sI127
(I10
I79
tp129
sI128
(I9
I79
tp130
sI129
(I9
I80
tp131
sI130
(I9
I80
tp132
sI131
(I9
I80
tp133
sI132
(I9
I81
tp134
sI133
(I8
I81
tp135
sI134
(I8
I81
tp136
sI135
(I8
I81
tp137
sI136
(I7
I81
tp138
sI137
(I7
I81
tp139
sI138
(I7
I81
tp140
sI139
(I7
I81
tp141
sI140
(I8
I81
tp142
sI141
(I10
I81
tp143
sI142
(I12
I81
tp144
sI143
(I13
I81
tp145
sI144
(I18
I81
tp146
sI145
(I20
I78
tp147
sI146
(I22
I75
tp148
sI147
(I23
I76
tp149
sI148
(I24
I78
tp150
sI149
(I25
I80
tp151
sI150
(I26
I80
tp152
sI151
(I27
I80
tp153
sI152
(I28
I80
tp154
sI153
(I27
I35
tp155
sI154
(I27
I34
tp156
sI155
(I26
I33
tp157
sI156
(I26
I32
tp158
sI157
(I28
I31
tp159
s(dp160
I0
(I85
I87
tp161
sI1
(I85
I89
tp162
sI2
(I85
I90
tp163
sI3
(I84
I92
tp164
sI4
(I84
I94
tp165
sI5
(I83
I95
tp166
sI6
(I83
I97
tp167
sI7
(I82
I139
tp168
sI8
(I67
I140
tp169
sI9
(I65
I140
tp170
sI10
(I54
I141
tp171
sI11
(I53
I141
tp172
sI12
(I53
I142
tp173
sI13
(I53
I143
tp174
sI14
(I53
I143
tp175
sI15
(I53
I143
tp176
sI16
(I53
I143
tp177
sI17
(I54
I143
tp178
sI18
(I54
I144
tp179
sI19
(I55
I144
tp180
sI20
(I55
I145
tp181
sI21
(I57
I145
tp182
sI22
(I56
I146
tp183
sI23
(I56
I147
tp184
sI24
(I55
I148
tp185
sI25
(I55
I149
tp186
sI26
(I40
I156
tp187
sI27
(I30
I156
tp188
sI28
(I24
I156
tp189
sI29
(I19
I156
tp190
sI30
(I14
I156
tp191
sI31
(I12
I156
tp192
sI32
(I10
I156
tp193
sI33
(I9
I155
tp194
sI34
(I7
I154
tp195
sI35
(I6
I153
tp196
sI36
(I4
I152
tp197
sI37
(I3
I151
tp198
sI38
(I1
I150
tp199
sI39
(I1
I150
tp200
sI40
(I22
I149
tp201
sI41
(I28
I149
tp202
sI42
(I31
I143
tp203
sI43
(I33
I142
tp204
sI44
(I34
I140
tp205
sI45
(I35
I140
tp206
sI46
(I37
I141
tp207
sI47
(I39
I142
tp208
sI48
(I43
I142
tp209
sI49
(I49
I142
tp210
sI50
(I48
I142
tp211
sI51
(I47
I142
tp212
sI52
(I45
I143
tp213
sI53
(I43
I143
tp214
sI54
(I63
I143
tp215
sI55
(I63
I144
tp216
sI56
(I64
I145
tp217
sI57
(I64
I146
tp218
sI58
(I64
I146
tp219
sI59
(I64
I146
tp220
sI60
(I64
I146
tp221
sI61
(I64
I146
tp222
sI62
(I64
I146
tp223
sI63
(I64
I146
tp224
sI64
(I64
I147
tp225
sI65
(I64
I147
tp226
sI66
(I64
I148
tp227
sI67
(I66
I149
tp228
sI68
(I66
I149
tp229
sI69
(I66
I150
tp230
sI70
(I66
I150
tp231
sI71
(I66
I151
tp232
sI72
(I66
I151
tp233
sI73
(I66
I151
tp234
sI74
(I66
I151
tp235
sI75
(I66
I152
tp236
sI76
(I66
I152
tp237
sI77
(I64
I152
tp238
sI78
(I64
I152
tp239
sI79
(I64
I152
tp240
sI80
(I64
I152
tp241
sI81
(I64
I144
tp242
sI82
(I64
I67
tp243
sI83
(I64
I67
tp244
sI84
(I64
I67
tp245
sI85
(I64
I67
tp246
sI86
(I64
I67
tp247
sI87
(I64
I67
tp248
sI88
(I67
I67
tp249
sI89
(I65
I67
tp250
sI90
(I66
I67
tp251
sI91
(I66
I67
tp252
sI92
(I67
I67
tp253
stp254
.