((dp1
I0
(I70
I72
tp2
sI1
(I69
I74
tp3
sI2
(I69
I77
tp4
sI3
(I68
I78
tp5
sI4
(I68
I80
tp6
sI5
(I68
I80
tp7
sI6
(I67
I82
tp8
sI7
(I35
I83
tp9
sI8
(I36
I84
tp10
sI9
(I38
I87
tp11
sI10
(I39
I90
tp12
sI11
(I41
I92
tp13
sI12
(I44
I93
tp14
sI13
(I49
I94
tp15
sI14
(I58
I95
tp16
sI15
(I68
I102
tp17
sI16
(I68
I103
tp18
sI17
(I52
I103
tp19
sI18
(I52
I104
tp20
sI19
(I53
I104
tp21
sI20
(I55
I104
tp22
sI21
(I56
I104
tp23
sI22
(I55
I104
tp24
sI23
(I54
I103
tp25
sI24
(I53
I103
tp26
sI25
(I53
I103
tp27
sI26
(I56
I102
tp28
sI27
(I56
I102
tp29
sI28
(I64
I103
tp30
sI29
(I64
I103
tp31
sI30
(I64
I103
tp32
sI31
(I63
I104
tp33
sI32
(I62
I105
tp34
sI33
(I56
I106
tp35
sI34
(I54
I106
tp36
sI35
(I46
I107
tp37
sI36
(I20
I107
tp38
sI37
(I19
I108
tp39
sI38
(I18
I111
tp40
sI39
(I17
I116
tp41
sI40
(I16
I118
tp42
sI41
(I15
I121
tp43
sI42
(I14
I128
tp44
sI43
(I13
I129
tp45
sI44
(I13
I129
tp46
sI45
(I13
I129
tp47
sI46
(I13
I103
tp48
sI47
(I10
I93
tp49
sI48
(I8
I93
tp50
sI49
(I6
I93
tp51
sI50
(I3
I93
tp52
sI51
(I4
I93
tp53
sI52
(I6
I93
tp54
sI53
(I1
I93
tp55
sI54
(I1
I94
tp56
sI55
(I1
I95
tp57
sI56
(I1
I95
tp58
sI57
(I1
I96
tp59
sI58
(I1
I97
tp60
sI59
(I1
I97
tp61
sI60
(I2
I98
tp62
sI61
(I3
I98
tp63
sI62
(I4
I98
tp64
sI63
(I5
I98
tp65
sI64
(I6
I98
tp66
sI65
(I7
I97
tp67
sI66
(I8
I97
tp68
sI67
(I8
I97
tp69
sI68
(I8
I97
tp70
sI69
(I8
I96
tp71
sI70
(I8
I94
tp72
sI71
(I8
I92
tp73
sI72
(I9
I91
tp74
sI73
(I10
I89
tp75
sI74
(I12
I87
tp76
sI75
(I13
I86
tp77
sI76
(I14
I85
tp78
sI77
(I11
I83
tp79
sI78
(I10
I72
tp80
sI79
(I10
I73
tp81
sI80
(I10
I75
tp82
sI81
(I10
I77
tp83
sI82
(I9
I77
tp84
sI83
(I9
I77
tp85
sI84
(I8
I25
tp86
sI85
(I8
I17
tp87
sI86
(I7
I16
tp88
sI87
(I7
I14
tp89
sI88
(I6
I13
tp90
sI89
(I6
I13
tp91
sI90
(I6
I13
tp92
sI91
(I6
I13
tp93
sI92
(I6
I13
tp94
sI93
(I6
I13
tp95
sI94
(I6
I10
tp96
s(dp97
I0
(I53
I58
tp98
sI1
(I53
I59
tp99
sI2
(I53
I60
tp100
sI3
(I50
I61
tp101
sI4
(I50
I62
tp102
sI5
(I50
I63
tp103
sI6
(I49
I93
tp104
sI7
(I49
I93
tp105
sI8
(I48
I93
tp106
sI9
(I48
I93
tp107
sI10
(I47
I93
tp108
sI11
(I47
I93
tp109
sI12
(I47
I93
tp110
sI13
(I43
I93
tp111
sI14
(I42
I87
tp112
sI15
(I41
I86
tp113
sI16
(I40
I86
tp114
sI17
(I39
I85
tp115
sI18
(I38
I84
tp116
sI19
(I37
I83
tp117
sI20
(I36
I81
tp118
sI21
(I36
I82
tp119
sI22
(I36
I83
tp120
sI23
(I36
I84
tp121
sI24
(I36
I84
tp122
sI25
(I36
I84
tp123
sI26
(I36
I83
tp124
sI27
(I36
I83
tp125
sI28
(I37
I83
tp126
sI29
(I37
I82
tp127
sI30
(I37
I82
tp128
sI31
(I37
I81
tp129
sI32
(I37
I81
tp130
sI33
(I37
I80
tp131
sI34
(I37
I80
tp132
sI35
(I7
I79
tp133
sI36
(I8
I78
tp134
sI37
(I8
I78
tp135
sI38
(I9
I77
tp136
sI39
(I9
I77
tp137
sI40
(I10
I76
tp138
sI41
(I10
I76
tp139
sI42
(I7
I75
tp140
sI43
(I7
I75
tp141
sI44
(I7
I75
tp142
sI45
(I8
I74
tp143
sI46
(I8
I74
tp144
sI47
(I8
I74
tp145
sI48
(I8
I73
tp146
sI49
(I9
I72
tp147
sI50
(I9
I72
tp148
sI51
(I9
I71
tp149
sI52
(I9
I71
tp150
sI53
(I9
I71
tp151
sI54
(I9
I70
tp152
sI55
(I9
I69
tp153
sI56
(I9
I68
tp154
sI57
(I9
I68
tp155
sI58
(I9
I68
tp156
sI59
(I9
I68
tp157
sI60
(I8
I70
tp158
sI61
(I8
I74
tp159
sI62
(I8
I75
tp160
sI63
(I8
I76
tp161
sI64
(I8
I77
tp162
sI65
(I8
I78
tp163
sI66
(I8
I79
tp164
sI67
(I6
I80
tp165
sI68
(I3
I81
tp166
sI69
(I1
I82
tp167
sI70
(I1
I83
tp168
sI71
(I1
I83
tp169
sI72
(I1
I83
tp170
sI73
(I1
I83
tp171
sI74
(I1
I83
tp172
sI75
(I2
I83
tp173
sI76
(I2
I83
tp174
sI77
(I2
I83
tp175
sI78
(I3
I77
tp176
sI79
(I4
I77
tp177
sI80
(I4
I77
tp178
sI81
(I6
I77
tp179
sI82
(I6
I77
tp180
sI83
(I7
I77
tp181
sI84
(I8
I76
tp182
sI85
(I9
I76
tp183
sI86
(I9
I75
tp184
sI87
(I9
I74
tp185
sI88
(I10
I73
tp186
sI89
(I10
I73
tp187
sI90
(I10
I72
tp188
sI91
(I11
I72
tp189
sI92
(I11
I71
tp190
sI93
(I12
I70
tp191
sI94
(I13
I70
tp192
sI95
(I14
I69
tp193
sI96
(I15
I69
tp194
sI97
(I16
I68
tp195
sI98
(I17
I64
tp196
sI99
(I18
I43
tp197
sI100
(I20
I44
tp198
sI101
(I22
I45
tp199
sI102
(I15
I46
tp200
sI103
(I16
I46
tp201
sI104
(I18
I44
tp202
sI105
(I32
I44
tp203
sI106
(I33
I44
tp204
sI107
(I35
I40
tp205
sI108
(I37
I39
tp206
sI109
(I38
I39
tp207
sI110
(I38
I39
tp208
sI111
(I38
I40
tp209
sI112
(I39
I40
tp210
sI113
(I39
I40
tp211
sI114
(I39
I40
tp212
sI115
(I39
I41
tp213
sI116
(I39
I41
tp214
sI117
(I40
I41
tp215
sI118
(I40
I42
tp216
sI119
(I41
I42
tp217
sI120
(I41
I42
tp218
sI121
(I41
I43
tp219
sI122
(I42
I43
tp220
sI123
(I42
I43
tp221
sI124
(I42
I44
tp222
sI125
(I43
I44
tp223
sI126
(I43
I44
tp224
sI127
(I42
I45
tp225
sI128
(I42
I45
tp226
sI129
(I43
I45
tp227
sI130
(I44
I45
tp228
stp229
.