((dp1
I0
(I34
I50
tp2
sI1
(I31
I53
tp3
sI2
(I29
I54
tp4
sI3
(I28
I56
tp5
sI4
(I31
I57
tp6
sI5
(I29
I58
tp7
sI6
(I28
I59
tp8
sI7
(I26
I60
tp9
sI8
(I25
I61
tp10
sI9
(I25
I61
tp11
sI10
(I24
I62
tp12
sI11
(I23
I62
tp13
sI12
(I23
I65
tp14
sI13
(I22
I66
tp15
sI14
(I22
I66
tp16
sI15
(I21
I66
tp17
sI16
(I21
I66
tp18
sI17
(I21
I66
tp19
sI18
(I20
I66
tp20
sI19
(I20
I66
tp21
sI20
(I20
I65
tp22
sI21
(I20
I74
tp23
sI22
(I19
I76
tp24
sI23
(I19
I76
tp25
sI24
(I19
I76
tp26
sI25
(I19
I76
tp27
sI26
(I19
I75
tp28
sI27
(I19
I74
tp29
sI28
(I19
I73
tp30
sI29
(I19
I72
tp31
sI30
(I19
I70
tp32
sI31
(I19
I73
tp33
sI32
(I19
I73
tp34
sI33
(I19
I74
tp35
sI34
(I19
I77
tp36
sI35
(I19
I77
tp37
sI36
(I19
I77
tp38
sI37
(I33
I78
tp39
sI38
(I33
I79
tp40
sI39
(I33
I79
tp41
sI40
(I32
I78
tp42
sI41
(I32
I77
tp43
sI42
(I31
I75
tp44
sI43
(I31
I75
tp45
sI44
(I29
I76
tp46
sI45
(I28
I76
tp47
sI46
(I28
I77
tp48
sI47
(I26
I77
tp49
sI48
(I24
I78
tp50
sI49
(I22
I78
tp51
sI50
(I22
I79
tp52
sI51
(I22
I79
tp53
sI52
(I22
I80
tp54
sI53
(I20
I80
tp55
sI54
(I18
I81
tp56
sI55
(I16
I81
tp57
sI56
(I16
I82
tp58
sI57
(I16
I82
tp59
sI58
(I16
I83
tp60
sI59
(I16
I83
tp61
sI60
(I15
I84
tp62
sI61
(I15
I84
tp63
sI62
(I15
I85
tp64
sI63
(I15
I85
tp65
sI64
(I14
I86
tp66
sI65
(I13
I86
tp67
sI66
(I12
I87
tp68
sI67
(I10
I87
tp69
sI68
(I9
I88
tp70
sI69
(I7
I88
tp71
sI70
(I6
I89
tp72
sI71
(I5
I89
tp73
sI72
(I4
I90
tp74
sI73
(I4
I90
tp75
sI74
(I4
I91
tp76
sI75
(I3
I91
tp77
sI76
(I3
I92
tp78
sI77
(I3
I92
tp79
sI78
(I2
I93
tp80
sI79
(I2
I93
tp81
sI80
(I1
I94
tp82
sI81
(I1
I94
tp83
sI82
(I1
I95
tp84
sI83
(I1
I96
tp85
sI84
(I1
I96
tp86
sI85
(I1
I96
tp87
sI86
(I1
I96
tp88
sI87
(I1
I96
tp89
sI88
(I1
I96
tp90
sI89
(I1
I96
tp91
sI90
(I1
I96
tp92
sI91
(I27
I96
tp93
sI92
(I35
I65
tp94
sI93
(I36
I64
tp95
sI94
(I36
I62
tp96
sI95
(I36
I61
tp97
sI96
(I36
I59
tp98
sI97
(I36
I58
tp99
sI98
(I37
I57
tp100
sI99
(I38
I56
tp101
sI100
(I38
I56
tp102
sI101
(I39
I55
tp103
sI102
(I39
I55
tp104
sI103
(I40
I54
tp105
sI104
(I40
I53
tp106
sI105
(I41
I53
tp107
sI106
(I42
I52
tp108
sI107
(I42
I45
tp109
sI108
(I43
I44
tp110
s(dp111
I0
(I85
I90
tp112
sI1
(I80
I90
tp113
sI2
(I78
I90
tp114
sI3
(I75
I89
tp115
sI4
(I72
I88
tp116
sI5
(I71
I87
tp117
sI6
(I70
I86
tp118
sI7
(I69
I85
tp119
sI8
(I69
I84
tp120
sI9
(I68
I83
tp121
sI10
(I67
I82
tp122
sI11
(I67
I81
tp123
sI12
(I66
I80
tp124
sI13
(I65
I79
tp125
sI14
(I64
I78
tp126
sI15
(I60
I77
tp127
sI16
(I55
I76
tp128
sI17
(I55
I76
tp129
sI18
(I54
I84
tp130
sI19
(I22
I86
tp131
sI20
(I18
I87
tp132
sI21
(I15
I88
tp133
sI22
(I13
I89
tp134
sI23
(I11
I89
tp135
sI24
(I10
I89
tp136
sI25
(I8
I90
tp137
sI26
(I7
I90
tp138
sI27
(I7
I91
tp139
sI28
(I3
I91
tp140
sI29
(I2
I91
tp141
sI30
(I2
I82
tp142
sI31
(I1
I85
tp143
sI32
(I1
I86
tp144
sI33
(I1
I90
tp145
sI34
(I1
I91
tp146
sI35
(I1
I92
tp147
sI36
(I1
I97
tp148
sI37
(I1
I98
tp149
sI38
(I1
I100
tp150
sI39
(I2
I102
tp151
sI40
(I2
I104
tp152
sI41
(I2
I105
tp153
sI42
(I2
I107
tp154
sI43
(I2
I107
tp155
sI44
(I2
I107
tp156
sI45
(I2
I107
tp157
sI46
(I2
I103
tp158
sI47
(I2
I104
tp159
sI48
(I1
I104
tp160
sI49
(I1
I105
tp161
sI50
(I1
I106
tp162
sI51
(I1
I106
tp163
sI52
(I1
I106
tp164
sI53
(I1
I105
tp165
sI54
(I2
I103
tp166
sI55
(I3
I102
tp167
sI56
(I3
I100
tp168
sI57
(I4
I98
tp169
sI58
(I5
I97
tp170
sI59
(I6
I96
tp171
sI60
(I7
I95
tp172
sI61
(I8
I95
tp173
sI62
(I10
I94
tp174
sI63
(I13
I93
tp175
sI64
(I16
I93
tp176
sI65
(I12
I92
tp177
sI66
(I13
I91
tp178
sI67
(I23
I90
tp179
sI68
(I22
I89
tp180
sI69
(I22
I89
tp181
sI70
(I23
I88
tp182
sI71
(I24
I86
tp183
sI72
(I22
I51
tp184
sI73
(I21
I43
tp185
sI74
(I21
I45
tp186
sI75
(I22
I47
tp187
sI76
(I22
I49
tp188
sI77
(I34
I51
tp189
sI78
(I37
I53
tp190
sI79
(I38
I55
tp191
sI80
(I52
I57
tp192
sI81
(I54
I59
tp193
sI82
(I56
I61
tp194
sI83
(I58
I63
tp195
sI84
(I60
I65
tp196
sI85
(I62
I67
tp197
sI86
(I64
I69
tp198
sI87
(I66
I71
tp199
sI88
(I68
I73
tp200
sI89
(I70
I75
tp201
sI90
(I72
I77
tp202
sI91
(I74
I79
tp203
sI92
(I76
I81
tp204
sI93
(I78
I83
tp205
sI94
(I80
I86
tp206
sI95
(I82
I89
tp207
sI96
(I89
I91
tp208
sI97
(I83
I89
tp209
stp210
.