((dp1
I0
(I63
I64
tp2
sI1
(I65
I66
tp3
sI2
(I67
I68
tp4
sI3
(I44
I69
tp5
sI4
(I52
I70
tp6
sI5
(I57
I71
tp7
sI6
(I43
I72
tp8
sI7
(I38
I73
tp9
sI8
(I33
I74
tp10
sI9
(I30
I74
tp11
sI10
(I28
I75
tp12
sI11
(I27
I75
tp13
sI12
(I32
I76
tp14
sI13
(I30
I76
tp15
sI14
(I28
I76
tp16
sI15
(I26
I77
tp17
sI16
(I24
I77
tp18
sI17
(I22
I77
tp19
sI18
(I20
I77
tp20
sI19
(I19
I77
tp21
sI20
(I18
I77
tp22
sI21
(I33
I76
tp23
sI22
(I32
I76
tp24
sI23
(I70
I77
tp25
sI24
(I58
I79
tp26
sI25
(I56
I80
tp27
sI26
(I55
I81
tp28
sI27
(I54
I81
tp29
sI28
(I53
I82
tp30
sI29
(I52
I82
tp31
sI30
(I51
I82
tp32
sI31
(I51
I82
tp33
sI32
(I50
I82
tp34
sI33
(I50
I82
tp35
sI34
(I50
I81
tp36
sI35
(I50
I81
tp37
sI36
(I50
I81
tp38
sI37
(I50
I82
tp39
sI38
(I50
I83
tp40
sI39
(I50
I84
tp41
sI40
(I50
I85
tp42
sI41
(I50
I86
tp43
sI42
(I50
I86
tp44
sI43
(I50
I87
tp45
sI44
(I50
I89
tp46
sI45
(I50
I90
tp47
sI46
(I51
I92
tp48
sI47
(I51
I93
tp49
sI48
(I52
I94
tp50
sI49
(I53
I95
tp51
sI50
(I53
I96
tp52
sI51
(I53
I97
tp53
sI52
(I53
I97
tp54
sI53
(I53
I98
tp55
sI54
(I53
I99
tp56
sI55
(I52
I100
tp57
sI56
(I24
I101
tp58
sI57
(I23
I103
tp59
sI58
(I22
I104
tp60
sI59
(I21
I105
tp61
sI60
(I21
I106
tp62
sI61
(I20
I107
tp63
sI62
(I20
I108
tp64
sI63
(I20
I109
tp65
sI64
(I19
I110
tp66
sI65
(I19
I110
tp67
sI66
(I19
I111
tp68
sI67
(I19
I112
tp69
sI68
(I19
I113
tp70
sI69
(I18
I115
tp71
sI70
(I18
I117
tp72
sI71
(I18
I119
tp73
sI72
(I18
I120
tp74
sI73
(I19
I122
tp75
sI74
(I17
I124
tp76
sI75
(I10
I126
tp77
sI76
(I4
I128
tp78
sI77
(I2
I129
tp79
sI78
(I1
I131
tp80
sI79
(I1
I133
tp81
sI80
(I1
I135
tp82
sI81
(I1
I137
tp83
sI82
(I1
I139
tp84
sI83
(I1
I141
tp85
sI84
(I1
I143
tp86
sI85
(I1
I145
tp87
sI86
(I1
I146
tp88
sI87
(I1
I149
tp89
sI88
(I1
I151
tp90
sI89
(I2
I153
tp91
sI90
(I3
I155
tp92
sI91
(I4
I156
tp93
sI92
(I5
I158
tp94
sI93
(I4
I160
tp95
sI94
(I4
I162
tp96
sI95
(I4
I164
tp97
sI96
(I4
I165
tp98
sI97
(I5
I165
tp99
sI98
(I6
I96
tp100
sI99
(I6
I96
tp101
sI100
(I6
I97
tp102
sI101
(I6
I97
tp103
sI102
(I6
I97
tp104
sI103
(I6
I97
tp105
sI104
(I6
I102
tp106
sI105
(I1
I103
tp107
sI106
(I86
I103
tp108
sI107
(I86
I103
tp109
s(dp110
I0
(I80
I105
tp111
sI1
(I78
I105
tp112
sI2
(I77
I105
tp113
sI3
(I77
I105
tp114
sI4
(I76
I105
tp115
sI5
(I76
I105
tp116
sI6
(I76
I105
tp117
sI7
(I76
I105
tp118
sI8
(I76
I105
tp119
sI9
(I76
I105
tp120
sI10
(I75
I105
tp121
sI11
(I75
I105
tp122
sI12
(I75
I105
tp123
sI13
(I75
I105
tp124
sI14
(I75
I101
tp125
sI15
(I75
I102
tp126
sI16
(I75
I102
tp127
sI17
(I74
I103
tp128
sI18
(I20
I103
tp129
sI19
(I19
I103
tp130
sI20
(I18
I104
tp131
sI21
(I18
I104
tp132
sI22
(I17
I104
tp133
sI23
(I17
I104
tp134
sI24
(I16
I104
tp135
sI25
(I16
I104
tp136
sI26
(I15
I104
tp137
sI27
(I11
I103
tp138
sI28
(I10
I103
tp139
sI29
(I10
I103
tp140
sI30
(I9
I102
tp141
sI31
(I9
I102
tp142
sI32
(I9
I101
tp143
sI33
(I8
I101
tp144
sI34
(I8
I100
tp145
sI35
(I8
I100
tp146
sI36
(I8
I100
tp147
sI37
(I8
I100
tp148
sI38
(I7
I99
tp149
sI39
(I7
I99
tp150
sI40
(I7
I99
tp151
sI41
(I7
I99
tp152
sI42
(I7
I99
tp153
sI43
(I6
I99
tp154
sI44
(I3
I98
tp155
sI45
(I3
I98
tp156
sI46
(I3
I98
tp157
sI47
(I3
I97
tp158
sI48
(I3
I96
tp159
sI49
(I3
I99
tp160
sI50
(I3
I100
tp161
sI51
(I3
I101
tp162
sI52
(I3
I102
tp163
sI53
(I4
I102
tp164
sI54
(I4
I103
tp165
sI55
(I4
I103
tp166
sI56
(I4
I103
tp167
sI57
(I4
I104
tp168
sI58
(I4
I104
tp169
sI59
(I5
I104
tp170
sI60
(I5
I104
tp171
sI61
(I5
I105
tp172
sI62
(I5
I105
tp173
sI63
(I1
I105
tp174
sI64
(I1
I105
tp175
sI65
(I1
I105
tp176
sI66
(I1
I105
tp177
sI67
(I2
I105
tp178
sI68
(I2
I105
tp179
sI69
(I3
I105
tp180
sI70
(I4
I105
tp181
sI71
(I5
I105
tp182
sI72
(I6
I105
tp183
sI73
(I7
I105
tp184
sI74
(I8
I105
tp185
sI75
(I10
I105
tp186
sI76
(I12
I104
tp187
sI77
(I15
I104
tp188
sI78
(I24
I104
tp189
sI79
(I24
I104
tp190
sI80
(I25
I104
tp191
sI81
(I26
I104
tp192
sI82
(I28
I104
tp193
sI83
(I38
I104
tp194
sI84
(I39
I104
tp195
sI85
(I40
I104
tp196
sI86
(I41
I106
tp197
sI87
(I43
I106
tp198
sI88
(I44
I106
tp199
sI89
(I44
I106
tp200
sI90
(I45
I106
tp201
sI91
(I46
I106
tp202
sI92
(I46
I106
tp203
sI93
(I47
I106
tp204
sI94
(I48
I106
tp205
sI95
(I49
I106
tp206
sI96
(I50
I106
tp207
sI97
(I51
I106
tp208
sI98
(I53
I106
tp209
sI99
(I54
I106
tp210
sI100
(I55
I106
tp211
sI101
(I56
I106
tp212
sI102
(I57
I106
tp213
sI103
(I57
I106
tp214
sI104
(I58
I69
tp215
sI105
(I59
I70
tp216
sI106
(I60
I70
tp217
sI107
(I61
I70
tp218
sI108
(I62
I70
tp219
sI109
(I63
I70
tp220
sI110
(I64
I69
tp221
sI111
(I66
I69
tp222
sI112
(I67
I70
tp223
sI113
(I68
I70
tp224
sI114
(I69
I71
tp225
sI115
(I69
I71
tp226
sI116
(I70
I72
tp227
sI117
(I70
I73
tp228
sI118
(I71
I73
tp229
sI119
(I71
I74
tp230
sI120
(I72
I74
tp231
sI121
(I73
I75
tp232
sI122
(I73
I75
tp233
sI123
(I74
I76
tp234
sI124
(I74
I77
tp235
sI125
(I75
I77
tp236
sI126
(I75
I78
tp237
sI127
(I76
I78
tp238
sI128
(I76
I78
tp239
sI129
(I77
I79
tp240
sI130
(I78
I79
tp241
sI131
(I78
I80
tp242
sI132
(I79
I80
tp243
sI133
(I79
I81
tp244
sI134
(I80
I81
tp245
sI135
(I80
I82
tp246
sI136
(I81
I82
tp247
sI137
(I81
I83
tp248
sI138
(I82
I84
tp249
sI139
(I82
I84
tp250
sI140
(I83
I85
tp251
sI141
(I83
I85
tp252
sI142
(I84
I86
tp253
sI143
(I84
I86
tp254
sI144
(I85
I87
tp255
sI145
(I85
I87
tp256
sI146
(I86
I88
tp257
sI147
(I87
I88
tp258
sI148
(I87
I89
tp259
sI149
(I87
I89
tp260
sI150
(I88
I90
tp261
sI151
(I88
I90
tp262
sI152
(I89
I91
tp263
sI153
(I89
I91
tp264
sI154
(I90
I92
tp265
sI155
(I90
I92
tp266
sI156
(I91
I93
tp267
sI157
(I92
I93
tp268
sI158
(I92
I94
tp269
sI159
(I93
I94
tp270
sI160
(I93
I95
tp271
sI161
(I94
I95
tp272
sI162
(I94
I95
tp273
sI163
(I95
I96
tp274
sI164
(I95
I96
tp275
sI165
(I96
I96
tp276
sI166
(I97
I97
tp277
stp278
.