((dp1
I0
(I33
I40
tp2
sI1
(I31
I42
tp3
sI2
(I30
I43
tp4
sI3
(I29
I44
tp5
sI4
(I28
I45
tp6
sI5
(I26
I45
tp7
sI6
(I24
I45
tp8
sI7
(I21
I45
tp9
sI8
(I25
I45
tp10
sI9
(I24
I44
tp11
sI10
(I23
I44
tp12
sI11
(I21
I43
tp13
sI12
(I19
I43
tp14
sI13
(I18
I47
tp15
sI14
(I16
I46
tp16
sI15
(I15
I45
tp17
sI16
(I13
I43
tp18
sI17
(I11
I40
tp19
sI18
(I9
I38
tp20
sI19
(I7
I39
tp21
sI20
(I5
I40
tp22
sI21
(I4
I41
tp23
sI22
(I3
I42
tp24
sI23
(I2
I42
tp25
sI24
(I2
I43
tp26
sI25
(I1
I43
tp27
sI26
(I1
I43
tp28
sI27
(I1
I43
tp29
sI28
(I1
I45
tp30
sI29
(I1
I49
tp31
sI30
(I1
I52
tp32
sI31
(I1
I53
tp33
sI32
(I7
I54
tp34
sI33
(I7
I55
tp35
sI34
(I7
I56
tp36
sI35
(I7
I56
tp37
sI36
(I8
I57
tp38
sI37
(I8
I57
tp39
sI38
(I9
I57
tp40
sI39
(I9
I57
tp41
sI40
(I10
I57
tp42
sI41
(I11
I56
tp43
sI42
(I10
I56
tp44
sI43
(I9
I56
tp45
sI44
(I8
I55
tp46
sI45
(I8
I55
tp47
sI46
(I8
I55
tp48
sI47
(I8
I54
tp49
sI48
(I8
I54
tp50
sI49
(I9
I53
tp51
sI50
(I10
I54
tp52
sI51
(I11
I55
tp53
sI52
(I12
I56
tp54
sI53
(I14
I57
tp55
sI54
(I16
I58
tp56
sI55
(I9
I62
tp57
sI56
(I9
I71
tp58
sI57
(I9
I83
tp59
sI58
(I10
I93
tp60
sI59
(I19
I89
tp61
sI60
(I20
I75
tp62
sI61
(I21
I76
tp63
sI62
(I33
I77
tp64
sI63
(I33
I77
tp65
sI64
(I31
I71
tp66
sI65
(I30
I71
tp67
sI66
(I29
I72
tp68
sI67
(I29
I73
tp69
sI68
(I29
I74
tp70
sI69
(I29
I75
tp71
sI70
(I29
I77
tp72
sI71
(I29
I79
tp73
sI72
(I28
I80
tp74
sI73
(I27
I80
tp75
sI74
(I27
I80
tp76
sI75
(I27
I80
tp77
sI76
(I25
I81
tp78
sI77
(I21
I82
tp79
sI78
(I20
I84
tp80
sI79
(I19
I85
tp81
sI80
(I18
I86
tp82
sI81
(I17
I87
tp83
sI82
(I16
I88
tp84
sI83
(I15
I88
tp85
sI84
(I14
I88
tp86
sI85
(I14
I89
tp87
sI86
(I13
I90
tp88
sI87
(I13
I91
tp89
sI88
(I12
I92
tp90
sI89
(I12
I92
tp91
sI90
(I11
I93
tp92
sI91
(I11
I94
tp93
sI92
(I11
I95
tp94
sI93
(I20
I96
tp95
sI94
(I19
I97
tp96
sI95
(I18
I98
tp97
sI96
(I17
I99
tp98
sI97
(I16
I99
tp99
sI98
(I15
I100
tp100
sI99
(I14
I100
tp101
sI100
(I13
I101
tp102
sI101
(I13
I101
tp103
sI102
(I13
I101
tp104
sI103
(I13
I101
tp105
sI104
(I17
I101
tp106
sI105
(I20
I96
tp107
sI106
(I23
I94
tp108
sI107
(I23
I93
tp109
sI108
(I22
I91
tp110
sI109
(I22
I92
tp111
sI110
(I22
I92
tp112
sI111
(I22
I94
tp113
sI112
(I24
I96
tp114
sI113
(I25
I98
tp115
sI114
(I27
I99
tp116
sI115
(I89
I99
tp117
sI116
(I90
I98
tp118
s(dp119
I0
(I27
I31
tp120
sI1
(I25
I27
tp121
sI2
(I23
I24
tp122
sI3
(I22
I22
tp123
sI4
(I21
I21
tp124
sI5
(I20
I21
tp125
sI6
(I20
I20
tp126
sI7
(I19
I35
tp127
sI8
(I19
I48
tp128
sI9
(I18
I57
tp129
sI10
(I18
I58
tp130
sI11
(I17
I92
tp131
sI12
(I17
I92
tp132
sI13
(I16
I103
tp133
sI14
(I16
I103
tp134
sI15
(I15
I103
tp135
sI16
(I14
I103
tp136
sI17
(I14
I104
tp137
sI18
(I13
I104
tp138
sI19
(I12
I104
tp139
sI20
(I12
I105
tp140
sI21
(I7
I105
tp141
sI22
(I7
I111
tp142
sI23
(I7
I111
tp143
sI24
(I6
I112
tp144
sI25
(I6
I113
tp145
sI26
(I5
I113
tp146
sI27
(I5
I114
tp147
sI28
(I4
I114
tp148
sI29
(I3
I114
tp149
sI30
(I2
I114
tp150
sI31
(I1
I114
tp151
sI32
(I1
I114
tp152
sI33
(I1
I114
tp153
sI34
(I1
I114
tp154
sI35
(I1
I114
tp155
sI36
(I1
I109
tp156
sI37
(I1
I109
tp157
sI38
(I1
I110
tp158
sI39
(I1
I110
tp159
sI40
(I1
I111
tp160
sI41
(I1
I111
tp161
sI42
(I1
I112
tp162
sI43
(I2
I112
tp163
sI44
(I3
I112
tp164
sI45
(I4
I112
tp165
sI46
(I14
I111
tp166
sI47
(I13
I110
tp167
sI48
(I29
I109
tp168
sI49
(I29
I108
tp169
sI50
(I30
I107
tp170
sI51
(I30
I105
tp171
sI52
(I30
I103
tp172
sI53
(I31
I101
tp173
sI54
(I32
I100
tp174
sI55
(I33
I99
tp175
sI56
(I34
I100
tp176
sI57
(I36
I101
tp177
sI58
(I54
I104
tp178
sI59
(I55
I106
tp179
sI60
(I55
I108
tp180
sI61
(I55
I110
tp181
sI62
(I55
I110
tp182
sI63
(I56
I110
tp183
sI64
(I56
I110
tp184
sI65
(I56
I110
tp185
sI66
(I56
I110
tp186
sI67
(I56
I110
tp187
sI68
(I56
I110
tp188
sI69
(I56
I110
tp189
sI70
(I56
I111
tp190
sI71
(I56
I111
tp191
sI72
(I57
I111
tp192
sI73
(I57
I111
tp193
sI74
(I57
I111
tp194
sI75
(I57
I111
tp195
sI76
(I57
I111
tp196
sI77
(I57
I111
tp197
sI78
(I57
I111
tp198
sI79
(I57
I111
tp199
sI80
(I57
I110
tp200
sI81
(I57
I112
tp201
sI82
(I57
I112
tp202
sI83
(I57
I112
tp203
sI84
(I78
I113
tp204
sI85
(I79
I113
tp205
sI86
(I80
I113
tp206
sI87
(I81
I114
tp207
sI88
(I59
I114
tp208
sI89
(I59
I115
tp209
sI90
(I86
I115
tp210
sI91
(I58
I115
tp211
sI92
(I58
I115
tp212
sI93
(I58
I115
tp213
sI94
(I91
I115
tp214
sI95
(I92
I115
tp215
sI96
(I93
I115
tp216
sI97
(I94
I115
tp217
sI98
(I95
I115
tp218
sI99
(I96
I115
tp219
sI100
(I98
I104
tp220
sI101
(I100
I104
tp221
sI102
(I102
I103
tp222
stp223
.