((dp1
I0
(I47
I54
tp2
sI1
(I43
I57
tp3
sI2
(I41
I59
tp4
sI3
(I39
I61
tp5
sI4
(I37
I62
tp6
sI5
(I35
I63
tp7
sI6
(I34
I64
tp8
sI7
(I32
I70
tp9
sI8
(I31
I71
tp10
sI9
(I30
I71
tp11
sI10
(I29
I72
tp12
sI11
(I28
I72
tp13
sI12
(I27
I72
tp14
sI13
(I27
I72
tp15
sI14
(I26
I72
tp16
sI15
(I25
I71
tp17
sI16
(I25
I71
tp18
sI17
(I24
I71
tp19
sI18
(I24
I70
tp20
sI19
(I23
I70
tp21
sI20
(I23
I70
tp22
sI21
(I22
I70
tp23
sI22
(I22
I71
tp24
sI23
(I21
I72
tp25
sI24
(I21
I72
tp26
sI25
(I21
I72
tp27
sI26
(I20
I73
tp28
sI27
(I20
I73
tp29
sI28
(I20
I73
tp30
sI29
(I19
I73
tp31
sI30
(I19
I75
tp32
sI31
(I19
I76
tp33
sI32
(I18
I77
tp34
sI33
(I18
I79
tp35
sI34
(I18
I80
tp36
sI35
(I18
I82
tp37
sI36
(I17
I83
tp38
sI37
(I17
I82
tp39
sI38
(I17
I84
tp40
sI39
(I17
I85
tp41
sI40
(I17
I86
tp42
sI41
(I17
I88
tp43
sI42
(I31
I89
tp44
sI43
(I29
I90
tp45
sI44
(I27
I91
tp46
sI45
(I25
I93
tp47
sI46
(I23
I94
tp48
sI47
(I23
I96
tp49
sI48
(I23
I97
tp50
sI49
(I23
I98
tp51
sI50
(I23
I99
tp52
sI51
(I23
I101
tp53
sI52
(I22
I102
tp54
sI53
(I20
I103
tp55
sI54
(I19
I104
tp56
sI55
(I17
I107
tp57
sI56
(I16
I106
tp58
sI57
(I15
I107
tp59
sI58
(I14
I107
tp60
sI59
(I13
I107
tp61
sI60
(I13
I107
tp62
sI61
(I13
I79
tp63
sI62
(I12
I80
tp64
sI63
(I11
I80
tp65
sI64
(I10
I81
tp66
sI65
(I9
I81
tp67
sI66
(I10
I82
tp68
sI67
(I11
I82
tp69
sI68
(I12
I83
tp70
sI69
(I12
I83
tp71
sI70
(I11
I84
tp72
sI71
(I11
I84
tp73
sI72
(I10
I85
tp74
sI73
(I8
I85
tp75
sI74
(I7
I85
tp76
sI75
(I6
I85
tp77
sI76
(I5
I86
tp78
sI77
(I4
I87
tp79
sI78
(I4
I88
tp80
sI79
(I3
I88
tp81
sI80
(I1
I89
tp82
sI81
(I1
I90
tp83
sI82
(I1
I94
tp84
sI83
(I1
I95
tp85
sI84
(I20
I95
tp86
sI85
(I21
I95
tp87
s(dp88
I0
(I81
I83
tp89
sI1
(I80
I83
tp90
sI2
(I80
I83
tp91
sI3
(I79
I83
tp92
sI4
(I77
I83
tp93
sI5
(I76
I83
tp94
sI6
(I75
I83
tp95
sI7
(I74
I83
tp96
sI8
(I73
I83
tp97
sI9
(I65
I83
tp98
sI10
(I64
I83
tp99
sI11
(I63
I82
tp100
sI12
(I62
I82
tp101
sI13
(I59
I82
tp102
sI14
(I58
I82
tp103
sI15
(I57
I82
tp104
sI16
(I56
I82
tp105
sI17
(I36
I82
tp106
sI18
(I32
I82
tp107
sI19
(I29
I82
tp108
sI20
(I26
I84
tp109
sI21
(I23
I84
tp110
sI22
(I21
I84
tp111
sI23
(I19
I84
tp112
sI24
(I17
I84
tp113
sI25
(I15
I84
tp114
sI26
(I14
I84
tp115
sI27
(I12
I84
tp116
sI28
(I11
I84
tp117
sI29
(I10
I84
tp118
sI30
(I9
I84
tp119
sI31
(I8
I84
tp120
sI32
(I7
I84
tp121
sI33
(I7
I84
tp122
sI34
(I6
I84
tp123
sI35
(I5
I84
tp124
sI36
(I5
I84
tp125
sI37
(I4
I84
tp126
sI38
(I4
I84
tp127
sI39
(I3
I84
tp128
sI40
(I3
I84
tp129
sI41
(I2
I84
tp130
sI42
(I2
I84
tp131
sI43
(I1
I84
tp132
sI44
(I1
I84
tp133
sI45
(I1
I84
tp134
sI46
(I1
I83
tp135
sI47
(I1
I77
tp136
sI48
(I1
I78
tp137
sI49
(I1
I82
tp138
sI50
(I1
I82
tp139
sI51
(I1
I82
tp140
sI52
(I1
I82
tp141
sI53
(I1
I83
tp142
sI54
(I1
I83
tp143
sI55
(I1
I83
tp144
sI56
(I1
I83
tp145
sI57
(I1
I84
tp146
sI58
(I2
I84
tp147
sI59
(I2
I84
tp148
sI60
(I3
I84
tp149
sI61
(I3
I84
tp150
sI62
(I4
I84
tp151
sI63
(I5
I84
tp152
sI64
(I6
I84
tp153
sI65
(I7
I84
tp154
sI66
(I8
I84
tp155
sI67
(I9
I84
tp156
sI68
(I11
I84
tp157
sI69
(I13
I84
tp158
sI70
(I7
I84
tp159
sI71
(I8
I84
tp160
sI72
(I10
I83
tp161
sI73
(I26
I83
tp162
sI74
(I30
I83
tp163
sI75
(I30
I83
tp164
sI76
(I31
I83
tp165
sI77
(I32
I84
tp166
sI78
(I33
I84
tp167
sI79
(I33
I84
tp168
sI80
(I34
I84
tp169
sI81
(I35
I84
tp170
sI82
(I35
I84
tp171
sI83
(I36
I84
tp172
sI84
(I38
I84
tp173
sI85
(I39
I84
tp174
sI86
(I40
I84
tp175
sI87
(I41
I84
tp176
sI88
(I41
I84
tp177
sI89
(I42
I84
tp178
sI90
(I43
I84
tp179
sI91
(I44
I84
tp180
sI92
(I45
I84
tp181
sI93
(I45
I84
tp182
sI94
(I46
I84
tp183
sI95
(I47
I84
tp184
sI96
(I47
I49
tp185
sI97
(I48
I50
tp186
sI98
(I49
I51
tp187
sI99
(I50
I52
tp188
sI100
(I51
I52
tp189
sI101
(I51
I53
tp190
sI102
(I52
I54
tp191
sI103
(I53
I55
tp192
sI104
(I54
I56
tp193
sI105
(I55
I57
tp194
sI106
(I56
I58
tp195
sI107
(I55
I59
tp196
sI108
(I57
I60
tp197
stp198
.