((dp1
I0
(I37
I37
tp2
sI1
(I38
I38
tp3
sI2
(I23
I39
tp4
sI3
(I20
I39
tp5
sI4
(I18
I40
tp6
sI5
(I17
I40
tp7
sI6
(I16
I40
tp8
sI7
(I15
I39
tp9
sI8
(I14
I39
tp10
sI9
(I13
I39
tp11
sI10
(I2
I39
tp12
sI11
(I1
I41
tp13
sI12
(I1
I42
tp14
sI13
(I4
I43
tp15
sI14
(I3
I43
tp16
sI15
(I3
I76
tp17
sI16
(I2
I78
tp18
sI17
(I2
I80
tp19
sI18
(I3
I80
tp20
sI19
(I2
I44
tp21
sI20
(I1
I44
tp22
sI21
(I1
I46
tp23
sI22
(I1
I48
tp24
sI23
(I1
I50
tp25
sI24
(I2
I51
tp26
sI25
(I3
I52
tp27
sI26
(I4
I53
tp28
sI27
(I6
I53
tp29
sI28
(I7
I54
tp30
sI29
(I8
I54
tp31
sI30
(I8
I54
tp32
sI31
(I8
I54
tp33
sI32
(I8
I54
tp34
sI33
(I8
I53
tp35
sI34
(I8
I52
tp36
sI35
(I8
I51
tp37
sI36
(I8
I50
tp38
sI37
(I8
I49
tp39
sI38
(I8
I44
tp40
sI39
(I8
I43
tp41
sI40
(I8
I41
tp42
sI41
(I8
I39
tp43
sI42
(I8
I38
tp44
sI43
(I9
I37
tp45
sI44
(I9
I37
tp46
sI45
(I9
I37
tp47
sI46
(I9
I38
tp48
sI47
(I9
I41
tp49
sI48
(I9
I42
tp50
sI49
(I9
I42
tp51
sI50
(I9
I43
tp52
sI51
(I10
I47
tp53
sI52
(I10
I48
tp54
sI53
(I10
I49
tp55
sI54
(I10
I49
tp56
sI55
(I10
I51
tp57
sI56
(I13
I53
tp58
sI57
(I13
I54
tp59
sI58
(I12
I55
tp60
sI59
(I12
I56
tp61
sI60
(I11
I57
tp62
sI61
(I11
I58
tp63
sI62
(I11
I59
tp64
sI63
(I11
I60
tp65
sI64
(I10
I61
tp66
sI65
(I10
I62
tp67
sI66
(I9
I63
tp68
sI67
(I9
I64
tp69
sI68
(I9
I64
tp70
sI69
(I8
I65
tp71
sI70
(I7
I65
tp72
sI71
(I7
I65
tp73
sI72
(I6
I65
tp74
sI73
(I5
I65
tp75
sI74
(I4
I65
tp76
sI75
(I4
I66
tp77
sI76
(I4
I66
tp78
sI77
(I3
I67
tp79
sI78
(I3
I67
tp80
sI79
(I3
I67
tp81
sI80
(I2
I67
tp82
sI81
(I1
I67
tp83
sI82
(I1
I66
tp84
sI83
(I1
I65
tp85
sI84
(I1
I65
tp86
sI85
(I1
I65
tp87
sI86
(I1
I65
tp88
sI87
(I1
I65
tp89
sI88
(I2
I65
tp90
sI89
(I2
I65
tp91
sI90
(I2
I65
tp92
sI91
(I2
I65
tp93
sI92
(I2
I65
tp94
sI93
(I2
I65
tp95
sI94
(I3
I64
tp96
sI95
(I6
I64
tp97
sI96
(I6
I64
tp98
sI97
(I7
I64
tp99
sI98
(I8
I64
tp100
sI99
(I8
I63
tp101
sI100
(I9
I63
tp102
sI101
(I9
I63
tp103
sI102
(I9
I63
tp104
sI103
(I9
I62
tp105
sI104
(I9
I62
tp106
sI105
(I9
I59
tp107
sI106
(I9
I59
tp108
sI107
(I9
I31
tp109
sI108
(I9
I30
tp110
sI109
(I9
I30
tp111
sI110
(I9
I29
tp112
sI111
(I9
I28
tp113
sI112
(I9
I28
tp114
sI113
(I9
I27
tp115
sI114
(I9
I27
tp116
sI115
(I9
I26
tp117
sI116
(I9
I26
tp118
sI117
(I9
I25
tp119
sI118
(I9
I25
tp120
sI119
(I9
I15
tp121
sI120
(I10
I15
tp122
sI121
(I11
I15
tp123
sI122
(I12
I14
tp124
s(dp125
I0
(I21
I22
tp126
sI1
(I11
I87
tp127
sI2
(I10
I93
tp128
sI3
(I10
I94
tp129
sI4
(I10
I94
tp130
sI5
(I10
I93
tp131
sI6
(I10
I96
tp132
sI7
(I10
I97
tp133
sI8
(I11
I99
tp134
sI9
(I11
I119
tp135
sI10
(I12
I120
tp136
sI11
(I12
I121
tp137
sI12
(I10
I121
tp138
sI13
(I9
I121
tp139
sI14
(I8
I121
tp140
sI15
(I7
I121
tp141
sI16
(I6
I111
tp142
sI17
(I5
I112
tp143
sI18
(I4
I113
tp144
sI19
(I4
I114
tp145
sI20
(I3
I115
tp146
sI21
(I3
I116
tp147
sI22
(I3
I117
tp148
sI23
(I2
I118
tp149
sI24
(I2
I118
tp150
sI25
(I2
I118
tp151
sI26
(I2
I116
tp152
sI27
(I2
I114
tp153
sI28
(I2
I112
tp154
sI29
(I2
I110
tp155
sI30
(I2
I109
tp156
sI31
(I3
I107
tp157
sI32
(I3
I104
tp158
sI33
(I3
I102
tp159
sI34
(I4
I101
tp160
sI35
(I5
I100
tp161
sI36
(I6
I97
tp162
sI37
(I1
I95
tp163
sI38
(I1
I95
tp164
sI39
(I2
I94
tp165
sI40
(I4
I94
tp166
sI41
(I11
I95
tp167
sI42
(I12
I96
tp168
sI43
(I13
I96
tp169
sI44
(I15
I97
tp170
sI45
(I15
I98
tp171
sI46
(I15
I99
tp172
sI47
(I15
I100
tp173
sI48
(I15
I100
tp174
sI49
(I15
I101
tp175
sI50
(I15
I101
tp176
sI51
(I15
I102
tp177
sI52
(I15
I103
tp178
sI53
(I15
I105
tp179
sI54
(I15
I106
tp180
sI55
(I15
I106
tp181
sI56
(I17
I106
tp182
sI57
(I17
I106
tp183
sI58
(I17
I106
tp184
sI59
(I17
I106
tp185
sI60
(I17
I104
tp186
sI61
(I17
I104
tp187
sI62
(I17
I104
tp188
sI63
(I17
I102
tp189
sI64
(I17
I98
tp190
sI65
(I17
I93
tp191
sI66
(I15
I82
tp192
sI67
(I15
I81
tp193
sI68
(I15
I18
tp194
sI69
(I15
I18
tp195
sI70
(I15
I18
tp196
sI71
(I15
I18
tp197
sI72
(I15
I18
tp198
sI73
(I15
I18
tp199
sI74
(I15
I18
tp200
sI75
(I15
I18
tp201
sI76
(I15
I18
tp202
sI77
(I18
I18
tp203
sI78
(I16
I18
tp204
sI79
(I17
I18
tp205
sI80
(I17
I18
tp206
sI81
(I18
I18
tp207
stp208
.