((dp1
I0
(I54
I58
tp2
sI1
(I54
I62
tp3
sI2
(I54
I64
tp4
sI3
(I47
I67
tp5
sI4
(I41
I69
tp6
sI5
(I36
I71
tp7
sI6
(I32
I76
tp8
sI7
(I27
I79
tp9
sI8
(I25
I81
tp10
sI9
(I33
I83
tp11
sI10
(I53
I84
tp12
sI11
(I53
I85
tp13
sI12
(I53
I90
tp14
sI13
(I54
I91
tp15
sI14
(I52
I92
tp16
sI15
(I50
I92
tp17
sI16
(I47
I92
tp18
sI17
(I45
I93
tp19
sI18
(I39
I93
tp20
sI19
(I39
I93
tp21
sI20
(I40
I93
tp22
sI21
(I42
I93
tp23
sI22
(I43
I93
tp24
sI23
(I42
I92
tp25
sI24
(I41
I92
tp26
sI25
(I40
I92
tp27
sI26
(I40
I92
tp28
sI27
(I43
I93
tp29
sI28
(I40
I94
tp30
sI29
(I31
I95
tp31
sI30
(I30
I95
tp32
sI31
(I28
I96
tp33
sI32
(I24
I96
tp34
sI33
(I20
I96
tp35
sI34
(I17
I96
tp36
sI35
(I14
I97
tp37
sI36
(I12
I101
tp38
sI37
(I9
I104
tp39
sI38
(I6
I108
tp40
sI39
(I4
I116
tp41
sI40
(I3
I118
tp42
sI41
(I2
I119
tp43
sI42
(I1
I119
tp44
sI43
(I1
I119
tp45
sI44
(I1
I81
tp46
sI45
(I5
I80
tp47
sI46
(I2
I80
tp48
sI47
(I1
I80
tp49
sI48
(I1
I79
tp50
sI49
(I1
I79
tp51
sI50
(I3
I78
tp52
sI51
(I7
I76
tp53
sI52
(I9
I74
tp54
sI53
(I10
I73
tp55
sI54
(I10
I73
tp56
sI55
(I9
I73
tp57
sI56
(I7
I73
tp58
sI57
(I4
I73
tp59
sI58
(I4
I73
tp60
sI59
(I3
I72
tp61
sI60
(I3
I72
tp62
sI61
(I4
I71
tp63
sI62
(I5
I70
tp64
sI63
(I6
I67
tp65
sI64
(I7
I65
tp66
sI65
(I9
I62
tp67
sI66
(I10
I60
tp68
sI67
(I11
I60
tp69
sI68
(I11
I60
tp70
sI69
(I11
I60
tp71
sI70
(I11
I59
tp72
sI71
(I11
I59
tp73
sI72
(I11
I59
tp74
sI73
(I14
I58
tp75
sI74
(I15
I57
tp76
sI75
(I15
I56
tp77
sI76
(I15
I54
tp78
sI77
(I17
I51
tp79
sI78
(I15
I48
tp80
sI79
(I14
I45
tp81
sI80
(I14
I43
tp82
sI81
(I15
I40
tp83
sI82
(I16
I38
tp84
sI83
(I18
I36
tp85
sI84
(I19
I27
tp86
sI85
(I20
I28
tp87
sI86
(I21
I31
tp88
sI87
(I22
I32
tp89
sI88
(I23
I32
tp90
sI89
(I24
I32
tp91
s(dp92
I0
(I48
I49
tp93
sI1
(I42
I49
tp94
sI2
(I41
I49
tp95
sI3
(I40
I60
tp96
sI4
(I39
I61
tp97
sI5
(I39
I62
tp98
sI6
(I38
I63
tp99
sI7
(I38
I64
tp100
sI8
(I38
I64
tp101
sI9
(I37
I65
tp102
sI10
(I37
I66
tp103
sI11
(I37
I72
tp104
sI12
(I36
I72
tp105
sI13
(I36
I72
tp106
sI14
(I35
I80
tp107
sI15
(I35
I81
tp108
sI16
(I35
I82
tp109
sI17
(I34
I82
tp110
sI18
(I34
I83
tp111
sI19
(I34
I84
tp112
sI20
(I33
I85
tp113
sI21
(I33
I86
tp114
sI22
(I33
I87
tp115
sI23
(I33
I88
tp116
sI24
(I32
I88
tp117
sI25
(I8
I88
tp118
sI26
(I8
I88
tp119
sI27
(I7
I88
tp120
sI28
(I7
I88
tp121
sI29
(I7
I88
tp122
sI30
(I7
I88
tp123
sI31
(I7
I88
tp124
sI32
(I6
I88
tp125
sI33
(I6
I82
tp126
sI34
(I6
I83
tp127
sI35
(I6
I83
tp128
sI36
(I5
I83
tp129
sI37
(I5
I82
tp130
sI38
(I5
I82
tp131
sI39
(I5
I81
tp132
sI40
(I5
I81
tp133
sI41
(I4
I80
tp134
sI42
(I4
I80
tp135
sI43
(I4
I80
tp136
sI44
(I4
I79
tp137
sI45
(I4
I79
tp138
sI46
(I4
I78
tp139
sI47
(I3
I78
tp140
sI48
(I3
I78
tp141
sI49
(I3
I77
tp142
sI50
(I3
I77
tp143
sI51
(I3
I77
tp144
sI52
(I3
I76
tp145
sI53
(I3
I76
tp146
sI54
(I1
I76
tp147
sI55
(I1
I75
tp148
sI56
(I1
I75
tp149
sI57
(I1
I74
tp150
sI58
(I1
I73
tp151
sI59
(I1
I72
tp152
sI60
(I1
I69
tp153
sI61
(I1
I65
tp154
sI62
(I1
I65
tp155
sI63
(I2
I64
tp156
sI64
(I2
I64
tp157
sI65
(I3
I64
tp158
sI66
(I3
I63
tp159
sI67
(I3
I63
tp160
sI68
(I4
I62
tp161
sI69
(I4
I62
tp162
sI70
(I5
I62
tp163
sI71
(I5
I61
tp164
sI72
(I6
I60
tp165
sI73
(I6
I58
tp166
sI74
(I6
I52
tp167
sI75
(I6
I51
tp168
sI76
(I6
I51
tp169
sI77
(I7
I50
tp170
sI78
(I7
I50
tp171
sI79
(I7
I49
tp172
sI80
(I8
I47
tp173
sI81
(I8
I44
tp174
sI82
(I9
I43
tp175
sI83
(I9
I40
tp176
sI84
(I10
I39
tp177
sI85
(I11
I38
tp178
sI86
(I12
I38
tp179
sI87
(I13
I39
tp180
sI88
(I14
I40
tp181
sI89
(I15
I41
tp182
sI90
(I12
I42
tp183
sI91
(I13
I43
tp184
sI92
(I14
I43
tp185
sI93
(I17
I41
tp186
sI94
(I28
I41
tp187
sI95
(I29
I41
tp188
sI96
(I31
I37
tp189
sI97
(I35
I37
tp190
sI98
(I36
I37
tp191
sI99
(I36
I37
tp192
sI100
(I36
I38
tp193
sI101
(I36
I38
tp194
sI102
(I37
I38
tp195
sI103
(I37
I38
tp196
sI104
(I37
I39
tp197
sI105
(I38
I39
tp198
sI106
(I38
I39
tp199
sI107
(I38
I40
tp200
sI108
(I38
I40
tp201
sI109
(I39
I40
tp202
sI110
(I39
I40
tp203
sI111
(I39
I41
tp204
sI112
(I40
I41
tp205
sI113
(I40
I41
tp206
sI114
(I40
I42
tp207
sI115
(I41
I42
tp208
sI116
(I39
I42
tp209
sI117
(I40
I43
tp210
sI118
(I40
I43
tp211
sI119
(I41
I43
tp212
sI120
(I42
I43
tp213
stp214
.