((dp1
I0
(I53
I72
tp2
sI1
(I58
I73
tp3
sI2
(I61
I75
tp4
sI3
(I50
I76
tp5
sI4
(I46
I78
tp6
sI5
(I42
I80
tp7
sI6
(I40
I81
tp8
sI7
(I37
I82
tp9
sI8
(I35
I83
tp10
sI9
(I33
I84
tp11
sI10
(I48
I85
tp12
sI11
(I55
I85
tp13
sI12
(I59
I86
tp14
sI13
(I62
I87
tp15
sI14
(I65
I87
tp16
sI15
(I66
I87
tp17
sI16
(I68
I88
tp18
sI17
(I69
I88
tp19
sI18
(I70
I88
tp20
sI19
(I71
I88
tp21
sI20
(I72
I88
tp22
sI21
(I73
I88
tp23
sI22
(I61
I88
tp24
sI23
(I55
I88
tp25
sI24
(I53
I87
tp26
sI25
(I52
I87
tp27
sI26
(I51
I86
tp28
sI27
(I50
I85
tp29
sI28
(I49
I84
tp30
sI29
(I46
I82
tp31
sI30
(I45
I83
tp32
sI31
(I44
I83
tp33
sI32
(I44
I83
tp34
sI33
(I44
I84
tp35
sI34
(I44
I84
tp36
sI35
(I44
I85
tp37
sI36
(I44
I85
tp38
sI37
(I44
I86
tp39
sI38
(I44
I86
tp40
sI39
(I45
I87
tp41
sI40
(I45
I87
tp42
sI41
(I43
I88
tp43
sI42
(I40
I89
tp44
sI43
(I38
I89
tp45
sI44
(I37
I89
tp46
sI45
(I36
I89
tp47
sI46
(I35
I89
tp48
sI47
(I34
I89
tp49
sI48
(I34
I89
tp50
sI49
(I35
I88
tp51
sI50
(I39
I87
tp52
sI51
(I25
I86
tp53
sI52
(I24
I85
tp54
sI53
(I23
I83
tp55
sI54
(I22
I81
tp56
sI55
(I22
I79
tp57
sI56
(I21
I80
tp58
sI57
(I21
I80
tp59
sI58
(I20
I81
tp60
sI59
(I13
I81
tp61
sI60
(I12
I81
tp62
sI61
(I12
I80
tp63
sI62
(I11
I80
tp64
sI63
(I11
I79
tp65
sI64
(I11
I78
tp66
sI65
(I10
I80
tp67
sI66
(I10
I82
tp68
sI67
(I10
I84
tp69
sI68
(I9
I85
tp70
sI69
(I9
I87
tp71
sI70
(I9
I88
tp72
sI71
(I9
I90
tp73
sI72
(I9
I91
tp74
sI73
(I9
I92
tp75
sI74
(I9
I92
tp76
sI75
(I9
I93
tp77
sI76
(I9
I93
tp78
sI77
(I9
I94
tp79
sI78
(I9
I94
tp80
sI79
(I9
I94
tp81
sI80
(I9
I95
tp82
sI81
(I9
I95
tp83
sI82
(I10
I95
tp84
sI83
(I10
I96
tp85
sI84
(I10
I96
tp86
sI85
(I10
I96
tp87
sI86
(I10
I97
tp88
sI87
(I10
I97
tp89
sI88
(I10
I98
tp90
sI89
(I9
I99
tp91
sI90
(I9
I99
tp92
sI91
(I9
I100
tp93
sI92
(I9
I101
tp94
sI93
(I9
I101
tp95
sI94
(I8
I102
tp96
sI95
(I8
I102
tp97
sI96
(I7
I102
tp98
sI97
(I7
I101
tp99
sI98
(I6
I99
tp100
sI99
(I6
I96
tp101
sI100
(I1
I96
tp102
sI101
(I2
I101
tp103
sI102
(I6
I102
tp104
sI103
(I65
I102
tp105
sI104
(I85
I102
tp106
s(dp107
I0
(I100
I100
tp108
sI1
(I100
I100
tp109
sI2
(I100
I101
tp110
sI3
(I100
I101
tp111
sI4
(I101
I101
tp112
sI5
(I101
I101
tp113
sI6
(I98
I102
tp114
sI7
(I96
I102
tp115
sI8
(I94
I102
tp116
sI9
(I68
I102
tp117
sI10
(I65
I102
tp118
sI11
(I62
I102
tp119
sI12
(I60
I102
tp120
sI13
(I59
I102
tp121
sI14
(I59
I96
tp122
sI15
(I59
I95
tp123
sI16
(I60
I94
tp124
sI17
(I61
I95
tp125
sI18
(I61
I96
tp126
sI19
(I61
I96
tp127
sI20
(I58
I96
tp128
sI21
(I56
I96
tp129
sI22
(I54
I95
tp130
sI23
(I53
I95
tp131
sI24
(I52
I94
tp132
sI25
(I51
I94
tp133
sI26
(I51
I94
tp134
sI27
(I51
I93
tp135
sI28
(I51
I93
tp136
sI29
(I52
I93
tp137
sI30
(I52
I93
tp138
sI31
(I52
I92
tp139
sI32
(I52
I92
tp140
sI33
(I9
I92
tp141
sI34
(I9
I92
tp142
sI35
(I8
I92
tp143
sI36
(I8
I92
tp144
sI37
(I7
I92
tp145
sI38
(I7
I91
tp146
sI39
(I7
I91
tp147
sI40
(I6
I91
tp148
sI41
(I6
I91
tp149
sI42
(I5
I91
tp150
sI43
(I5
I91
tp151
sI44
(I5
I90
tp152
sI45
(I5
I90
tp153
sI46
(I4
I89
tp154
sI47
(I4
I88
tp155
sI48
(I4
I87
tp156
sI49
(I4
I86
tp157
sI50
(I3
I85
tp158
sI51
(I3
I85
tp159
sI52
(I3
I84
tp160
sI53
(I1
I84
tp161
sI54
(I1
I83
tp162
sI55
(I1
I83
tp163
sI56
(I1
I100
tp164
sI57
(I1
I101
tp165
sI58
(I1
I101
tp166
sI59
(I1
I101
tp167
sI60
(I1
I101
tp168
sI61
(I1
I102
tp169
sI62
(I1
I102
tp170
sI63
(I1
I102
tp171
sI64
(I1
I102
tp172
sI65
(I1
I103
tp173
sI66
(I2
I103
tp174
sI67
(I2
I103
tp175
sI68
(I2
I103
tp176
sI69
(I3
I103
tp177
sI70
(I3
I103
tp178
sI71
(I3
I103
tp179
sI72
(I1
I103
tp180
sI73
(I1
I103
tp181
sI74
(I2
I103
tp182
sI75
(I2
I103
tp183
sI76
(I3
I103
tp184
sI77
(I4
I103
tp185
sI78
(I4
I103
tp186
sI79
(I5
I103
tp187
sI80
(I5
I102
tp188
sI81
(I6
I102
tp189
sI82
(I7
I102
tp190
sI83
(I8
I101
tp191
sI84
(I9
I101
tp192
sI85
(I10
I103
tp193
sI86
(I12
I103
tp194
sI87
(I13
I103
tp195
sI88
(I16
I103
tp196
sI89
(I42
I103
tp197
sI90
(I71
I103
tp198
sI91
(I72
I103
tp199
sI92
(I73
I103
tp200
sI93
(I75
I103
tp201
sI94
(I77
I103
tp202
sI95
(I80
I103
tp203
sI96
(I83
I103
tp204
sI97
(I86
I103
tp205
sI98
(I88
I103
tp206
sI99
(I89
I103
tp207
sI100
(I91
I103
tp208
sI101
(I92
I103
tp209
sI102
(I94
I103
tp210
sI103
(I95
I95
tp211
stp212
.