((dp1
I10
(I26
I34
tp2
sI11
(I22
I38
tp3
sI12
(I20
I41
tp4
sI13
(I18
I43
tp5
sI14
(I16
I44
tp6
sI15
(I15
I46
tp7
sI16
(I14
I47
tp8
sI17
(I13
I47
tp9
sI18
(I13
I48
tp10
sI19
(I12
I49
tp11
sI20
(I12
I49
tp12
sI21
(I11
I50
tp13
sI22
(I11
I50
tp14
sI23
(I10
I50
tp15
sI24
(I10
I51
tp16
sI25
(I10
I51
tp17
sI26
(I10
I51
tp18
sI27
(I9
I51
tp19
sI28
(I9
I51
tp20
sI29
(I9
I52
tp21
sI30
(I9
I52
tp22
sI31
(I9
I52
tp23
sI32
(I9
I52
tp24
sI33
(I9
I52
tp25
sI34
(I9
I52
tp26
sI35
(I9
I51
tp27
sI36
(I10
I51
tp28
sI37
(I10
I51
tp29
sI38
(I10
I51
tp30
sI39
(I10
I51
tp31
sI40
(I11
I50
tp32
sI41
(I11
I50
tp33
sI42
(I11
I49
tp34
sI43
(I12
I49
tp35
sI44
(I12
I49
tp36
sI45
(I13
I48
tp37
sI46
(I14
I47
tp38
sI47
(I14
I46
tp39
sI48
(I15
I45
tp40
sI49
(I17
I44
tp41
sI50
(I18
I43
tp42
sI51
(I20
I40
tp43
sI52
(I23
I38
tp44
sI53
(I28
I33
tp45
s(dp46
I9
(I27
I35
tp47
sI10
(I23
I39
tp48
sI11
(I21
I42
tp49
sI12
(I19
I44
tp50
sI13
(I17
I45
tp51
sI14
(I16
I47
tp52
sI15
(I15
I48
tp53
sI16
(I14
I48
tp54
sI17
(I14
I49
tp55
sI18
(I13
I50
tp56
sI19
(I13
I50
tp57
sI20
(I12
I51
tp58
sI21
(I12
I51
tp59
sI22
(I11
I51
tp60
sI23
(I11
I52
tp61
sI24
(I11
I52
tp62
sI25
(I11
I52
tp63
sI26
(I10
I52
tp64
sI27
(I10
I52
tp65
sI28
(I10
I53
tp66
sI29
(I10
I53
tp67
sI30
(I10
I53
tp68
sI31
(I10
I53
tp69
sI32
(I10
I53
tp70
sI33
(I10
I53
tp71
sI34
(I10
I52
tp72
sI35
(I11
I52
tp73
sI36
(I11
I52
tp74
sI37
(I11
I52
tp75
sI38
(I11
I52
tp76
sI39
(I12
I51
tp77
sI40
(I12
I51
tp78
sI41
(I12
I50
tp79
sI42
(I13
I50
tp80
sI43
(I13
I50
tp81
sI44
(I14
I49
tp82
sI45
(I15
I48
tp83
sI46
(I15
I47
tp84
sI47
(I16
I46
tp85
sI48
(I18
I45
tp86
sI49
(I19
I44
tp87
sI50
(I21
I41
tp88
sI51
(I24
I39
tp89
sI52
(I29
I34
tp90
stp91
.