((dp1
I0
(I35
I49
tp2
sI1
(I23
I50
tp3
sI2
(I19
I51
tp4
sI3
(I17
I59
tp5
sI4
(I15
I59
tp6
sI5
(I13
I59
tp7
sI6
(I11
I58
tp8
sI7
(I10
I58
tp9
sI8
(I9
I58
tp10
sI9
(I8
I58
tp11
sI10
(I7
I57
tp12
sI11
(I7
I56
tp13
sI12
(I6
I54
tp14
sI13
(I6
I53
tp15
sI14
(I5
I52
tp16
sI15
(I5
I52
tp17
sI16
(I5
I53
tp18
sI17
(I4
I53
tp19
sI18
(I4
I54
tp20
sI19
(I4
I54
tp21
sI20
(I4
I55
tp22
sI21
(I7
I56
tp23
sI22
(I6
I57
tp24
sI23
(I6
I58
tp25
sI24
(I6
I59
tp26
sI25
(I5
I60
tp27
sI26
(I5
I61
tp28
sI27
(I5
I61
tp29
sI28
(I5
I61
tp30
sI29
(I5
I62
tp31
sI30
(I5
I62
tp32
sI31
(I5
I63
tp33
sI32
(I5
I63
tp34
sI33
(I5
I63
tp35
sI34
(I5
I62
tp36
sI35
(I5
I61
tp37
sI36
(I6
I60
tp38
sI37
(I6
I60
tp39
sI38
(I6
I60
tp40
sI39
(I7
I59
tp41
sI40
(I7
I61
tp42
sI41
(I8
I59
tp43
sI42
(I9
I60
tp44
sI43
(I9
I62
tp45
sI44
(I10
I60
tp46
sI45
(I11
I61
tp47
sI46
(I12
I61
tp48
sI47
(I13
I61
tp49
sI48
(I14
I62
tp50
sI49
(I16
I62
tp51
sI50
(I17
I63
tp52
sI51
(I18
I63
tp53
sI52
(I19
I63
tp54
sI53
(I19
I64
tp55
sI54
(I23
I64
tp56
sI55
(I22
I64
tp57
sI56
(I21
I65
tp58
sI57
(I21
I65
tp59
sI58
(I21
I65
tp60
sI59
(I20
I66
tp61
sI60
(I19
I66
tp62
sI61
(I18
I66
tp63
sI62
(I17
I67
tp64
sI63
(I15
I67
tp65
sI64
(I14
I67
tp66
sI65
(I13
I68
tp67
sI66
(I12
I68
tp68
sI67
(I11
I68
tp69
sI68
(I10
I69
tp70
sI69
(I10
I69
tp71
sI70
(I10
I72
tp72
sI71
(I10
I73
tp73
sI72
(I10
I73
tp74
sI73
(I10
I74
tp75
sI74
(I9
I74
tp76
sI75
(I8
I74
tp77
sI76
(I8
I75
tp78
sI77
(I8
I76
tp79
sI78
(I7
I77
tp80
sI79
(I7
I78
tp81
sI80
(I6
I79
tp82
sI81
(I5
I80
tp83
sI82
(I4
I80
tp84
sI83
(I3
I80
tp85
sI84
(I3
I81
tp86
sI85
(I3
I81
tp87
sI86
(I3
I82
tp88
sI87
(I3
I82
tp89
sI88
(I3
I82
tp90
sI89
(I3
I83
tp91
sI90
(I3
I83
tp92
sI91
(I3
I84
tp93
sI92
(I2
I84
tp94
sI93
(I2
I84
tp95
sI94
(I2
I85
tp96
sI95
(I1
I85
tp97
sI96
(I1
I86
tp98
sI97
(I1
I86
tp99
sI98
(I1
I86
tp100
sI99
(I1
I85
tp101
sI100
(I1
I86
tp102
sI101
(I1
I88
tp103
sI102
(I1
I90
tp104
sI103
(I2
I91
tp105
sI104
(I2
I91
tp106
sI105
(I3
I91
tp107
sI106
(I80
I88
tp108
s(dp109
I0
(I98
I102
tp110
sI1
(I95
I102
tp111
sI2
(I92
I104
tp112
sI3
(I83
I105
tp113
sI4
(I17
I105
tp114
sI5
(I14
I105
tp115
sI6
(I12
I105
tp116
sI7
(I10
I105
tp117
sI8
(I9
I105
tp118
sI9
(I8
I105
tp119
sI10
(I7
I105
tp120
sI11
(I6
I105
tp121
sI12
(I6
I105
tp122
sI13
(I5
I105
tp123
sI14
(I5
I104
tp124
sI15
(I4
I100
tp125
sI16
(I4
I100
tp126
sI17
(I3
I100
tp127
sI18
(I3
I100
tp128
sI19
(I2
I100
tp129
sI20
(I2
I101
tp130
sI21
(I2
I101
tp131
sI22
(I2
I103
tp132
sI23
(I1
I104
tp133
sI24
(I1
I104
tp134
sI25
(I1
I104
tp135
sI26
(I1
I103
tp136
sI27
(I1
I103
tp137
sI28
(I1
I103
tp138
sI29
(I1
I102
tp139
sI30
(I2
I102
tp140
sI31
(I2
I102
tp141
sI32
(I2
I102
tp142
sI33
(I2
I101
tp143
sI34
(I3
I101
tp144
sI35
(I1
I100
tp145
sI36
(I1
I99
tp146
sI37
(I1
I98
tp147
sI38
(I2
I97
tp148
sI39
(I3
I85
tp149
sI40
(I5
I87
tp150
sI41
(I7
I88
tp151
sI42
(I9
I90
tp152
sI43
(I9
I91
tp153
sI44
(I6
I99
tp154
sI45
(I5
I99
tp155
sI46
(I6
I99
tp156
sI47
(I5
I101
tp157
sI48
(I1
I101
tp158
sI49
(I1
I102
tp159
sI50
(I1
I102
tp160
sI51
(I2
I102
tp161
sI52
(I3
I102
tp162
sI53
(I4
I102
tp163
sI54
(I8
I103
tp164
sI55
(I8
I103
tp165
sI56
(I5
I103
tp166
sI57
(I4
I103
tp167
sI58
(I3
I103
tp168
sI59
(I3
I103
tp169
sI60
(I25
I103
tp170
sI61
(I26
I103
tp171
sI62
(I29
I103
tp172
sI63
(I31
I104
tp173
sI64
(I53
I104
tp174
sI65
(I56
I104
tp175
sI66
(I59
I104
tp176
sI67
(I62
I104
tp177
sI68
(I65
I104
tp178
sI69
(I68
I104
tp179
sI70
(I71
I104
tp180
sI71
(I74
I103
tp181
sI72
(I70
I103
tp182
sI73
(I71
I103
tp183
sI74
(I73
I103
tp184
sI75
(I76
I103
tp185
sI76
(I77
I103
tp186
sI77
(I78
I103
tp187
sI78
(I79
I102
tp188
sI79
(I80
I104
tp189
sI80
(I81
I105
tp190
sI81
(I84
I105
tp191
sI82
(I86
I105
tp192
sI83
(I89
I105
tp193
sI84
(I91
I105
tp194
sI85
(I94
I105
tp195
sI86
(I96
I105
tp196
sI87
(I101
I105
tp197
sI88
(I101
I105
tp198
sI89
(I102
I105
tp199
sI90
(I102
I105
tp200
sI91
(I103
I105
tp201
sI92
(I104
I105
tp202
stp203
.