((dp1
I0
(I24
I33
tp2
sI1
(I21
I35
tp3
sI2
(I19
I37
tp4
sI3
(I17
I38
tp5
sI4
(I16
I39
tp6
sI5
(I15
I40
tp7
sI6
(I14
I47
tp8
sI7
(I13
I47
tp9
sI8
(I12
I46
tp10
sI9
(I11
I46
tp11
sI10
(I10
I45
tp12
sI11
(I10
I45
tp13
sI12
(I9
I44
tp14
sI13
(I9
I43
tp15
sI14
(I8
I42
tp16
sI15
(I8
I41
tp17
sI16
(I7
I41
tp18
sI17
(I7
I42
tp19
sI18
(I6
I43
tp20
sI19
(I6
I44
tp21
sI20
(I6
I44
tp22
sI21
(I5
I45
tp23
sI22
(I5
I45
tp24
sI23
(I5
I45
tp25
sI24
(I5
I45
tp26
sI25
(I4
I45
tp27
sI26
(I4
I45
tp28
sI27
(I4
I45
tp29
sI28
(I3
I44
tp30
sI29
(I3
I44
tp31
sI30
(I3
I45
tp32
sI31
(I3
I47
tp33
sI32
(I3
I49
tp34
sI33
(I3
I50
tp35
sI34
(I2
I51
tp36
sI35
(I2
I51
tp37
sI36
(I2
I51
tp38
sI37
(I2
I51
tp39
sI38
(I2
I51
tp40
sI39
(I2
I51
tp41
sI40
(I2
I51
tp42
sI41
(I2
I51
tp43
sI42
(I2
I52
tp44
sI43
(I2
I52
tp45
sI44
(I2
I52
tp46
sI45
(I2
I52
tp47
sI46
(I2
I52
tp48
sI47
(I2
I52
tp49
sI48
(I2
I52
tp50
sI49
(I2
I52
tp51
sI50
(I2
I51
tp52
sI51
(I2
I52
tp53
sI52
(I2
I53
tp54
sI53
(I3
I54
tp55
sI54
(I3
I55
tp56
sI55
(I4
I55
tp57
sI56
(I4
I55
tp58
sI57
(I4
I55
tp59
sI58
(I4
I55
tp60
sI59
(I5
I55
tp61
sI60
(I2
I55
tp62
sI61
(I1
I55
tp63
sI62
(I1
I56
tp64
sI63
(I2
I56
tp65
sI64
(I2
I56
tp66
sI65
(I3
I56
tp67
sI66
(I3
I57
tp68
sI67
(I2
I57
tp69
sI68
(I1
I58
tp70
sI69
(I1
I59
tp71
sI70
(I1
I59
tp72
sI71
(I2
I60
tp73
sI72
(I3
I61
tp74
sI73
(I3
I61
tp75
sI74
(I3
I62
tp76
sI75
(I3
I63
tp77
sI76
(I4
I63
tp78
sI77
(I5
I63
tp79
sI78
(I6
I62
tp80
sI79
(I8
I60
tp81
sI80
(I8
I59
tp82
sI81
(I8
I58
tp83
sI82
(I8
I57
tp84
sI83
(I8
I58
tp85
sI84
(I8
I58
tp86
sI85
(I8
I58
tp87
sI86
(I8
I58
tp88
sI87
(I7
I58
tp89
sI88
(I7
I58
tp90
sI89
(I6
I59
tp91
sI90
(I6
I60
tp92
sI91
(I5
I61
tp93
sI92
(I5
I62
tp94
sI93
(I4
I63
tp95
sI94
(I4
I63
tp96
sI95
(I4
I63
tp97
sI96
(I4
I63
tp98
sI97
(I4
I63
tp99
sI98
(I4
I63
tp100
sI99
(I3
I63
tp101
sI100
(I2
I63
tp102
sI101
(I1
I63
tp103
sI102
(I1
I63
tp104
sI103
(I1
I63
tp105
sI104
(I1
I63
tp106
sI105
(I1
I63
tp107
sI106
(I1
I63
tp108
sI107
(I1
I64
tp109
sI108
(I1
I65
tp110
sI109
(I1
I66
tp111
sI110
(I1
I67
tp112
sI111
(I1
I67
tp113
sI112
(I1
I67
tp114
sI113
(I1
I67
tp115
sI114
(I1
I67
tp116
sI115
(I1
I67
tp117
sI116
(I1
I67
tp118
sI117
(I1
I68
tp119
sI118
(I2
I68
tp120
sI119
(I4
I68
tp121
sI120
(I5
I69
tp122
sI121
(I4
I69
tp123
sI122
(I4
I66
tp124
sI123
(I4
I69
tp125
sI124
(I4
I74
tp126
sI125
(I39
I74
tp127
sI126
(I41
I74
tp128
sI127
(I44
I74
tp129
s(dp130
I0
(I110
I117
tp131
sI1
(I61
I117
tp132
sI2
(I34
I118
tp133
sI3
(I28
I118
tp134
sI4
(I25
I124
tp135
sI5
(I21
I124
tp136
sI6
(I18
I124
tp137
sI7
(I16
I124
tp138
sI8
(I14
I124
tp139
sI9
(I12
I124
tp140
sI10
(I10
I124
tp141
sI11
(I9
I124
tp142
sI12
(I8
I124
tp143
sI13
(I7
I124
tp144
sI14
(I6
I121
tp145
sI15
(I5
I121
tp146
sI16
(I4
I120
tp147
sI17
(I3
I120
tp148
sI18
(I3
I120
tp149
sI19
(I2
I120
tp150
sI20
(I2
I120
tp151
sI21
(I1
I120
tp152
sI22
(I1
I120
tp153
sI23
(I1
I120
tp154
sI24
(I1
I120
tp155
sI25
(I1
I119
tp156
sI26
(I1
I119
tp157
sI27
(I1
I119
tp158
sI28
(I1
I119
tp159
sI29
(I1
I118
tp160
sI30
(I1
I122
tp161
sI31
(I1
I123
tp162
sI32
(I1
I123
tp163
sI33
(I1
I124
tp164
sI34
(I1
I124
tp165
sI35
(I1
I124
tp166
sI36
(I2
I124
tp167
sI37
(I2
I124
tp168
sI38
(I3
I124
tp169
sI39
(I4
I125
tp170
sI40
(I5
I125
tp171
sI41
(I6
I126
tp172
sI42
(I8
I126
tp173
sI43
(I13
I126
tp174
sI44
(I11
I126
tp175
sI45
(I10
I126
tp176
sI46
(I8
I126
tp177
sI47
(I6
I126
tp178
sI48
(I32
I126
tp179
sI49
(I32
I126
tp180
sI50
(I33
I126
tp181
sI51
(I34
I126
tp182
sI52
(I42
I126
tp183
sI53
(I52
I126
tp184
sI54
(I53
I125
tp185
sI55
(I54
I125
tp186
sI56
(I62
I125
tp187
sI57
(I66
I125
tp188
sI58
(I68
I126
tp189
sI59
(I69
I126
tp190
sI60
(I71
I126
tp191
sI61
(I72
I126
tp192
sI62
(I74
I126
tp193
sI63
(I75
I126
tp194
sI64
(I107
I126
tp195
sI65
(I108
I126
tp196
sI66
(I109
I126
tp197
sI67
(I110
I126
tp198
sI68
(I117
I126
tp199
sI69
(I120
I126
tp200
sI70
(I124
I126
tp201
sI71
(I124
I126
tp202
sI72
(I124
I126
tp203
sI73
(I124
I126
tp204
sI74
(I124
I126
tp205
sI75
(I125
I126
tp206
stp207
.