((dp1
I0
(I42
I48
tp2
sI1
(I40
I50
tp3
sI2
(I21
I51
tp4
sI3
(I20
I52
tp5
sI4
(I20
I53
tp6
sI5
(I19
I53
tp7
sI6
(I19
I54
tp8
sI7
(I19
I57
tp9
sI8
(I19
I58
tp10
sI9
(I19
I58
tp11
sI10
(I20
I58
tp12
sI11
(I20
I57
tp13
sI12
(I18
I57
tp14
sI13
(I18
I56
tp15
sI14
(I19
I55
tp16
sI15
(I17
I54
tp17
sI16
(I16
I54
tp18
sI17
(I16
I54
tp19
sI18
(I19
I55
tp20
sI19
(I18
I56
tp21
sI20
(I17
I56
tp22
sI21
(I17
I57
tp23
sI22
(I17
I57
tp24
sI23
(I16
I100
tp25
sI24
(I15
I102
tp26
sI25
(I15
I102
tp27
sI26
(I18
I96
tp28
sI27
(I17
I90
tp29
sI28
(I16
I83
tp30
sI29
(I16
I77
tp31
sI30
(I16
I72
tp32
sI31
(I16
I66
tp33
sI32
(I17
I63
tp34
sI33
(I19
I64
tp35
sI34
(I20
I65
tp36
sI35
(I24
I65
tp37
sI36
(I31
I66
tp38
sI37
(I31
I66
tp39
sI38
(I32
I66
tp40
sI39
(I33
I66
tp41
sI40
(I34
I66
tp42
sI41
(I36
I66
tp43
sI42
(I36
I65
tp44
sI43
(I36
I64
tp45
sI44
(I37
I62
tp46
sI45
(I38
I60
tp47
sI46
(I38
I59
tp48
sI47
(I37
I58
tp49
sI48
(I36
I65
tp50
sI49
(I36
I75
tp51
sI50
(I34
I76
tp52
sI51
(I32
I77
tp53
sI52
(I30
I78
tp54
sI53
(I1
I79
tp55
sI54
(I1
I79
tp56
sI55
(I1
I80
tp57
sI56
(I1
I81
tp58
sI57
(I1
I81
tp59
sI58
(I2
I82
tp60
sI59
(I3
I82
tp61
sI60
(I4
I82
tp62
sI61
(I5
I83
tp63
sI62
(I6
I83
tp64
sI63
(I7
I83
tp65
sI64
(I8
I83
tp66
sI65
(I8
I83
tp67
sI66
(I9
I83
tp68
sI67
(I10
I84
tp69
sI68
(I10
I84
tp70
sI69
(I11
I84
tp71
sI70
(I11
I84
tp72
sI71
(I11
I84
tp73
sI72
(I10
I85
tp74
sI73
(I10
I85
tp75
sI74
(I9
I85
tp76
sI75
(I9
I86
tp77
sI76
(I8
I86
tp78
sI77
(I8
I86
tp79
sI78
(I8
I87
tp80
sI79
(I8
I87
tp81
sI80
(I9
I88
tp82
sI81
(I10
I89
tp83
sI82
(I11
I89
tp84
sI83
(I12
I84
tp85
sI84
(I13
I81
tp86
sI85
(I15
I83
tp87
sI86
(I17
I84
tp88
sI87
(I18
I89
tp89
sI88
(I19
I89
tp90
sI89
(I20
I89
tp91
sI90
(I21
I89
tp92
sI91
(I22
I39
tp93
sI92
(I29
I35
tp94
s(dp95
I0
(I53
I56
tp96
sI1
(I53
I57
tp97
sI2
(I53
I58
tp98
sI3
(I53
I59
tp99
sI4
(I53
I60
tp100
sI5
(I53
I61
tp101
sI6
(I53
I62
tp102
sI7
(I53
I63
tp103
sI8
(I54
I79
tp104
sI9
(I54
I80
tp105
sI10
(I55
I81
tp106
sI11
(I56
I82
tp107
sI12
(I56
I83
tp108
sI13
(I57
I84
tp109
sI14
(I57
I84
tp110
sI15
(I24
I85
tp111
sI16
(I16
I85
tp112
sI17
(I15
I86
tp113
sI18
(I12
I87
tp114
sI19
(I5
I88
tp115
sI20
(I3
I89
tp116
sI21
(I2
I90
tp117
sI22
(I12
I91
tp118
sI23
(I14
I91
tp119
sI24
(I15
I91
tp120
sI25
(I16
I91
tp121
sI26
(I17
I91
tp122
sI27
(I18
I91
tp123
sI28
(I19
I91
tp124
sI29
(I19
I91
tp125
sI30
(I18
I91
tp126
sI31
(I17
I91
tp127
sI32
(I15
I91
tp128
sI33
(I13
I91
tp129
sI34
(I10
I91
tp130
sI35
(I7
I91
tp131
sI36
(I5
I91
tp132
sI37
(I4
I91
tp133
sI38
(I3
I91
tp134
sI39
(I2
I91
tp135
sI40
(I1
I90
tp136
sI41
(I1
I90
tp137
sI42
(I1
I89
tp138
sI43
(I1
I88
tp139
sI44
(I1
I87
tp140
sI45
(I1
I86
tp141
sI46
(I1
I85
tp142
sI47
(I1
I84
tp143
sI48
(I1
I83
tp144
sI49
(I1
I82
tp145
sI50
(I1
I82
tp146
sI51
(I2
I82
tp147
sI52
(I3
I86
tp148
sI53
(I4
I87
tp149
sI54
(I6
I87
tp150
sI55
(I8
I87
tp151
sI56
(I12
I87
tp152
sI57
(I7
I87
tp153
sI58
(I8
I87
tp154
sI59
(I24
I87
tp155
sI60
(I26
I87
tp156
sI61
(I28
I87
tp157
sI62
(I30
I87
tp158
sI63
(I30
I87
tp159
sI64
(I29
I87
tp160
sI65
(I29
I87
tp161
sI66
(I29
I87
tp162
sI67
(I29
I87
tp163
sI68
(I29
I87
tp164
sI69
(I29
I87
tp165
sI70
(I28
I87
tp166
sI71
(I28
I87
tp167
sI72
(I28
I88
tp168
sI73
(I28
I88
tp169
sI74
(I28
I89
tp170
sI75
(I28
I89
tp171
sI76
(I28
I89
tp172
sI77
(I27
I89
tp173
sI78
(I27
I89
tp174
sI79
(I27
I89
tp175
sI80
(I27
I90
tp176
sI81
(I27
I90
tp177
sI82
(I27
I90
tp178
sI83
(I26
I90
tp179
sI84
(I26
I90
tp180
sI85
(I26
I90
tp181
sI86
(I26
I90
tp182
sI87
(I26
I90
tp183
sI88
(I25
I90
tp184
sI89
(I24
I90
tp185
sI90
(I24
I27
tp186
sI91
(I24
I26
tp187
sI92
(I24
I26
tp188
sI93
(I23
I26
tp189
sI94
(I23
I26
tp190
sI95
(I23
I26
tp191
sI96
(I23
I26
tp192
sI97
(I23
I25
tp193
sI98
(I23
I25
tp194
sI99
(I23
I25
tp195
sI100
(I23
I25
tp196
sI101
(I24
I25
tp197
sI102
(I24
I25
tp198
sI103
(I25
I25
tp199
stp200
.