(dp1
S'falling-00'
p2
(I35
I0
tp3
sS'falling-01'
p4
(I29
I0
tp5
sS'falling-02'
p6
(I29
I0
tp7
sS's-00'
p8
(I29
I0
tp9
sS's-01'
p10
(I46
I0
tp11
sS's-02'
p12
(I41
I0
tp13
sS's-03'
p14
(I48
I0
tp15
sS's-04'
p16
(I48
I0
tp17
sS's-05'
p18
(I37
I0
tp19
sS's-06'
p20
(I38
I0
tp21
sS'jump-00'
p22
(I37
I0
tp23
sS'jumpforw-02'
p24
(I22
I0
tp25
sS'jumpforw-03'
p26
(I35
I0
tp27
sS'jumpforw-00'
p28
(I29
I0
tp29
sS'jumpforw-01'
p30
(I32
I0
tp31
sS'jumpforw-04'
p32
(I30
I0
tp33
sS'2s-03'
p34
(I30
I0
tp35
sS'2s-02'
p36
(I32
I0
tp37
sS'2s-01'
p38
(I42
I0
tp39
sS'2s-00'
p40
(I41
I0
tp41
sS'crouch-02'
p42
(I29
I0
tp43
sS'crouch-00'
p44
(I26
I0
tp45
sS'crouch-01'
p46
(I25
I0
tp47
sS'stand-01'
p48
(I30
I0
tp49
sS'stand-00'
p50
(I29
I0
tp51
sS'8s-01'
p52
(I36
I0
tp53
sS'8s-00'
p54
(I24
I0
tp55
sS'8s-02'
p56
(I36
I0
tp57
s.