((dp1
I0
(I7
I8
tp2
sI1
(I6
I12
tp3
sI2
(I6
I13
tp4
sI3
(I5
I14
tp5
sI4
(I5
I23
tp6
sI5
(I5
I24
tp7
sI6
(I5
I25
tp8
sI7
(I4
I26
tp9
sI8
(I4
I29
tp10
sI9
(I4
I30
tp11
sI10
(I4
I32
tp12
sI11
(I4
I33
tp13
sI12
(I4
I34
tp14
sI13
(I4
I35
tp15
sI14
(I4
I36
tp16
sI15
(I3
I37
tp17
sI16
(I3
I38
tp18
sI17
(I3
I38
tp19
sI18
(I3
I38
tp20
sI19
(I3
I38
tp21
sI20
(I3
I37
tp22
sI21
(I3
I37
tp23
sI22
(I2
I36
tp24
sI23
(I2
I35
tp25
sI24
(I2
I34
tp26
sI25
(I1
I33
tp27
sI26
(I1
I32
tp28
sI27
(I1
I30
tp29
sI28
(I1
I29
tp30
sI29
(I1
I28
tp31
sI30
(I1
I36
tp32
sI31
(I1
I36
tp33
sI32
(I1
I35
tp34
sI33
(I1
I57
tp35
sI34
(I1
I58
tp36
sI35
(I1
I58
tp37
sI36
(I1
I58
tp38
sI37
(I2
I58
tp39
sI38
(I2
I58
tp40
sI39
(I3
I58
tp41
sI40
(I3
I58
tp42
sI41
(I4
I58
tp43
sI42
(I5
I58
tp44
sI43
(I6
I58
tp45
sI44
(I7
I58
tp46
sI45
(I8
I57
tp47
sI46
(I9
I57
tp48
sI47
(I10
I56
tp49
sI48
(I10
I56
tp50
sI49
(I11
I55
tp51
sI50
(I11
I55
tp52
sI51
(I11
I55
tp53
sI52
(I12
I54
tp54
sI53
(I12
I54
tp55
sI54
(I14
I54
tp56
sI55
(I14
I53
tp57
sI56
(I15
I53
tp58
sI57
(I16
I53
tp59
sI58
(I17
I52
tp60
sI59
(I18
I52
tp61
sI60
(I21
I52
tp62
sI61
(I26
I52
tp63
sI62
(I32
I51
tp64
sI63
(I36
I51
tp65
sI64
(I36
I52
tp66
sI65
(I36
I53
tp67
sI66
(I36
I55
tp68
sI67
(I36
I56
tp69
sI68
(I37
I56
tp70
sI69
(I37
I57
tp71
sI70
(I37
I57
tp72
sI71
(I37
I56
tp73
sI72
(I37
I47
tp74
sI73
(I37
I47
tp75
sI74
(I37
I47
tp76
sI75
(I38
I47
tp77
sI76
(I38
I47
tp78
sI77
(I38
I47
tp79
sI78
(I38
I47
tp80
sI79
(I38
I48
tp81
sI80
(I38
I48
tp82
sI81
(I38
I48
tp83
sI82
(I39
I49
tp84
sI83
(I40
I49
tp85
sI84
(I41
I48
tp86
sI85
(I41
I48
tp87
sI86
(I41
I49
tp88
sI87
(I41
I49
tp89
sI88
(I41
I50
tp90
sI89
(I42
I52
tp91
sI90
(I44
I53
tp92
sI91
(I45
I53
tp93
sI92
(I46
I54
tp94
sI93
(I47
I54
tp95
sI94
(I49
I53
tp96
s(dp97
I0
(I27
I34
tp98
sI1
(I25
I36
tp99
sI2
(I22
I38
tp100
sI3
(I15
I40
tp101
sI4
(I7
I41
tp102
sI5
(I3
I42
tp103
sI6
(I1
I43
tp104
sI7
(I1
I44
tp105
sI8
(I1
I45
tp106
sI9
(I1
I46
tp107
sI10
(I1
I48
tp108
sI11
(I1
I51
tp109
sI12
(I1
I53
tp110
sI13
(I2
I53
tp111
sI14
(I3
I55
tp112
sI15
(I4
I56
tp113
sI16
(I13
I57
tp114
sI17
(I5
I58
tp115
sI18
(I5
I59
tp116
sI19
(I4
I59
tp117
sI20
(I4
I59
tp118
sI21
(I4
I60
tp119
sI22
(I4
I60
tp120
sI23
(I4
I60
tp121
sI24
(I5
I60
tp122
sI25
(I6
I60
tp123
sI26
(I7
I61
tp124
sI27
(I8
I61
tp125
sI28
(I9
I61
tp126
sI29
(I8
I61
tp127
sI30
(I9
I61
tp128
sI31
(I10
I61
tp129
sI32
(I10
I62
tp130
sI33
(I11
I62
tp131
sI34
(I12
I62
tp132
sI35
(I13
I62
tp133
sI36
(I14
I67
tp134
sI37
(I15
I74
tp135
sI38
(I16
I81
tp136
sI39
(I39
I82
tp137
sI40
(I39
I83
tp138
sI41
(I38
I88
tp139
sI42
(I38
I89
tp140
sI43
(I37
I89
tp141
sI44
(I37
I90
tp142
sI45
(I36
I91
tp143
sI46
(I36
I92
tp144
sI47
(I35
I93
tp145
sI48
(I35
I93
tp146
sI49
(I34
I93
tp147
sI50
(I34
I93
tp148
sI51
(I33
I93
tp149
sI52
(I33
I93
tp150
sI53
(I33
I93
tp151
sI54
(I33
I93
tp152
sI55
(I33
I71
tp153
sI56
(I33
I71
tp154
sI57
(I33
I70
tp155
sI58
(I34
I44
tp156
sI59
(I35
I40
tp157
stp158
.