((dp1
I0
(I29
I33
tp2
sI1
(I27
I35
tp3
sI2
(I26
I36
tp4
sI3
(I26
I37
tp5
sI4
(I25
I37
tp6
sI5
(I25
I38
tp7
sI6
(I25
I38
tp8
sI7
(I25
I38
tp9
sI8
(I18
I38
tp10
sI9
(I12
I38
tp11
sI10
(I10
I38
tp12
sI11
(I10
I38
tp13
sI12
(I9
I38
tp14
sI13
(I9
I40
tp15
sI14
(I9
I42
tp16
sI15
(I8
I44
tp17
sI16
(I8
I44
tp18
sI17
(I7
I45
tp19
sI18
(I7
I45
tp20
sI19
(I7
I46
tp21
sI20
(I7
I46
tp22
sI21
(I7
I47
tp23
sI22
(I6
I47
tp24
sI23
(I6
I48
tp25
sI24
(I6
I48
tp26
sI25
(I6
I49
tp27
sI26
(I6
I49
tp28
sI27
(I6
I49
tp29
sI28
(I6
I49
tp30
sI29
(I6
I50
tp31
sI30
(I6
I50
tp32
sI31
(I7
I50
tp33
sI32
(I16
I51
tp34
sI33
(I16
I51
tp35
sI34
(I15
I52
tp36
sI35
(I15
I52
tp37
sI36
(I15
I52
tp38
sI37
(I15
I52
tp39
sI38
(I15
I52
tp40
sI39
(I15
I52
tp41
sI40
(I15
I51
tp42
sI41
(I15
I45
tp43
sI42
(I14
I34
tp44
sI43
(I14
I35
tp45
sI44
(I13
I35
tp46
sI45
(I13
I36
tp47
sI46
(I12
I37
tp48
sI47
(I12
I39
tp49
sI48
(I11
I39
tp50
sI49
(I10
I38
tp51
sI50
(I10
I36
tp52
sI51
(I9
I37
tp53
sI52
(I9
I37
tp54
sI53
(I8
I37
tp55
sI54
(I8
I38
tp56
sI55
(I7
I38
tp57
sI56
(I7
I38
tp58
sI57
(I6
I39
tp59
sI58
(I6
I39
tp60
sI59
(I6
I39
tp61
sI60
(I5
I39
tp62
sI61
(I5
I40
tp63
sI62
(I5
I40
tp64
sI63
(I4
I41
tp65
sI64
(I4
I41
tp66
sI65
(I3
I41
tp67
sI66
(I3
I42
tp68
sI67
(I2
I43
tp69
sI68
(I2
I43
tp70
sI69
(I2
I44
tp71
sI70
(I2
I45
tp72
sI71
(I2
I46
tp73
sI72
(I2
I46
tp74
sI73
(I3
I47
tp75
sI74
(I3
I48
tp76
sI75
(I3
I48
tp77
sI76
(I3
I49
tp78
sI77
(I4
I50
tp79
sI78
(I4
I50
tp80
sI79
(I4
I51
tp81
sI80
(I4
I51
tp82
sI81
(I5
I52
tp83
sI82
(I5
I52
tp84
sI83
(I5
I53
tp85
sI84
(I6
I53
tp86
sI85
(I6
I53
tp87
sI86
(I6
I54
tp88
sI87
(I7
I54
tp89
sI88
(I7
I55
tp90
sI89
(I7
I55
tp91
sI90
(I7
I56
tp92
sI91
(I7
I56
tp93
sI92
(I7
I56
tp94
sI93
(I6
I57
tp95
sI94
(I6
I57
tp96
sI95
(I7
I58
tp97
sI96
(I7
I59
tp98
sI97
(I2
I59
tp99
sI98
(I1
I59
tp100
sI99
(I1
I59
tp101
sI100
(I1
I59
tp102
sI101
(I1
I59
tp103
sI102
(I1
I59
tp104
s(dp105
I0
(I100
I101
tp106
sI1
(I98
I101
tp107
sI2
(I67
I101
tp108
sI3
(I65
I101
tp109
sI4
(I63
I101
tp110
sI5
(I60
I101
tp111
sI6
(I22
I101
tp112
sI7
(I17
I101
tp113
sI8
(I15
I101
tp114
sI9
(I12
I101
tp115
sI10
(I10
I101
tp116
sI11
(I10
I101
tp117
sI12
(I9
I101
tp118
sI13
(I9
I101
tp119
sI14
(I9
I101
tp120
sI15
(I9
I101
tp121
sI16
(I9
I101
tp122
sI17
(I9
I101
tp123
sI18
(I8
I96
tp124
sI19
(I8
I58
tp125
sI20
(I8
I57
tp126
sI21
(I8
I56
tp127
sI22
(I8
I55
tp128
sI23
(I8
I54
tp129
sI24
(I8
I55
tp130
sI25
(I4
I56
tp131
sI26
(I2
I58
tp132
sI27
(I1
I60
tp133
sI28
(I1
I62
tp134
sI29
(I1
I64
tp135
sI30
(I1
I66
tp136
sI31
(I1
I67
tp137
sI32
(I1
I68
tp138
sI33
(I1
I70
tp139
sI34
(I1
I71
tp140
sI35
(I1
I73
tp141
sI36
(I2
I74
tp142
sI37
(I3
I75
tp143
sI38
(I5
I77
tp144
sI39
(I13
I78
tp145
sI40
(I13
I79
tp146
sI41
(I14
I81
tp147
sI42
(I14
I82
tp148
sI43
(I15
I84
tp149
sI44
(I15
I85
tp150
sI45
(I17
I87
tp151
sI46
(I19
I89
tp152
sI47
(I21
I91
tp153
sI48
(I23
I93
tp154
sI49
(I25
I95
tp155
sI50
(I29
I97
tp156
sI51
(I32
I98
tp157
sI52
(I34
I101
tp158
sI53
(I83
I101
tp159
sI54
(I86
I101
tp160
sI55
(I88
I101
tp161
sI56
(I90
I101
tp162
sI57
(I93
I101
tp163
sI58
(I95
I101
tp164
sI59
(I96
I101
tp165
sI60
(I98
I101
tp166
stp167
.