((dp1
I0
(I25
I27
tp2
sI1
(I24
I26
tp3
sI2
(I23
I27
tp4
sI3
(I22
I28
tp5
sI4
(I21
I28
tp6
sI5
(I20
I28
tp7
sI6
(I14
I30
tp8
sI7
(I13
I31
tp9
sI8
(I12
I32
tp10
sI9
(I11
I32
tp11
sI10
(I10
I33
tp12
sI11
(I9
I33
tp13
sI12
(I8
I34
tp14
sI13
(I7
I34
tp15
sI14
(I6
I35
tp16
sI15
(I6
I33
tp17
sI16
(I5
I34
tp18
sI17
(I4
I36
tp19
sI18
(I4
I37
tp20
sI19
(I4
I38
tp21
sI20
(I4
I41
tp22
sI21
(I4
I52
tp23
sI22
(I5
I52
tp24
sI23
(I6
I65
tp25
sI24
(I7
I65
tp26
sI25
(I7
I63
tp27
sI26
(I6
I64
tp28
sI27
(I1
I65
tp29
sI28
(I1
I62
tp30
sI29
(I1
I60
tp31
sI30
(I1
I33
tp32
sI31
(I2
I32
tp33
sI32
(I3
I32
tp34
sI33
(I4
I32
tp35
sI34
(I5
I40
tp36
sI35
(I9
I40
tp37
sI36
(I12
I40
tp38
sI37
(I12
I40
tp39
sI38
(I13
I39
tp40
sI39
(I13
I39
tp41
sI40
(I14
I45
tp42
sI41
(I15
I51
tp43
sI42
(I15
I71
tp44
sI43
(I14
I90
tp45
sI44
(I14
I99
tp46
sI45
(I14
I101
tp47
sI46
(I16
I102
tp48
sI47
(I17
I102
tp49
sI48
(I17
I102
tp50
sI49
(I17
I102
tp51
sI50
(I16
I102
tp52
sI51
(I16
I102
tp53
sI52
(I16
I102
tp54
sI53
(I16
I92
tp55
sI54
(I15
I92
tp56
sI55
(I15
I31
tp57
sI56
(I15
I30
tp58
sI57
(I14
I29
tp59
sI58
(I14
I28
tp60
sI59
(I14
I27
tp61
sI60
(I13
I27
tp62
sI61
(I13
I26
tp63
sI62
(I13
I25
tp64
sI63
(I12
I25
tp65
sI64
(I12
I24
tp66
sI65
(I12
I24
tp67
sI66
(I12
I23
tp68
sI67
(I11
I23
tp69
sI68
(I11
I23
tp70
sI69
(I11
I22
tp71
sI70
(I10
I22
tp72
sI71
(I10
I22
tp73
sI72
(I10
I22
tp74
sI73
(I10
I23
tp75
sI74
(I10
I23
tp76
sI75
(I10
I24
tp77
sI76
(I10
I25
tp78
sI77
(I10
I25
tp79
sI78
(I11
I26
tp80
sI79
(I12
I27
tp81
sI80
(I13
I27
tp82
sI81
(I15
I28
tp83
sI82
(I16
I29
tp84
sI83
(I17
I30
tp85
sI84
(I18
I30
tp86
sI85
(I18
I30
tp87
sI86
(I19
I30
tp88
sI87
(I19
I30
tp89
sI88
(I19
I30
tp90
sI89
(I20
I29
tp91
sI90
(I21
I28
tp92
sI91
(I21
I28
tp93
sI92
(I21
I28
tp94
sI93
(I20
I27
tp95
sI94
(I20
I27
tp96
sI95
(I19
I27
tp97
sI96
(I19
I26
tp98
sI97
(I19
I26
tp99
sI98
(I19
I25
tp100
sI99
(I20
I24
tp101
s(dp102
I0
(I27
I28
tp103
sI1
(I27
I30
tp104
sI2
(I27
I31
tp105
sI3
(I27
I32
tp106
sI4
(I17
I33
tp107
sI5
(I16
I34
tp108
sI6
(I14
I34
tp109
sI7
(I13
I34
tp110
sI8
(I12
I34
tp111
sI9
(I11
I35
tp112
sI10
(I10
I77
tp113
sI11
(I9
I78
tp114
sI12
(I8
I79
tp115
sI13
(I7
I80
tp116
sI14
(I6
I80
tp117
sI15
(I6
I81
tp118
sI16
(I6
I82
tp119
sI17
(I6
I83
tp120
sI18
(I6
I85
tp121
sI19
(I6
I98
tp122
sI20
(I5
I98
tp123
sI21
(I4
I98
tp124
sI22
(I3
I98
tp125
sI23
(I2
I98
tp126
sI24
(I1
I98
tp127
sI25
(I1
I98
tp128
sI26
(I1
I97
tp129
sI27
(I1
I95
tp130
sI28
(I3
I92
tp131
sI29
(I6
I89
tp132
sI30
(I6
I88
tp133
sI31
(I7
I55
tp134
sI32
(I8
I54
tp135
sI33
(I10
I54
tp136
sI34
(I12
I53
tp137
sI35
(I14
I53
tp138
sI36
(I17
I53
tp139
sI37
(I18
I53
tp140
sI38
(I19
I53
tp141
sI39
(I20
I53
tp142
sI40
(I20
I53
tp143
sI41
(I20
I53
tp144
sI42
(I21
I53
tp145
sI43
(I21
I53
tp146
sI44
(I21
I53
tp147
sI45
(I21
I53
tp148
sI46
(I21
I53
tp149
sI47
(I21
I53
tp150
sI48
(I21
I53
tp151
sI49
(I21
I53
tp152
sI50
(I21
I53
tp153
sI51
(I21
I53
tp154
sI52
(I21
I53
tp155
sI53
(I23
I53
tp156
sI54
(I24
I53
tp157
sI55
(I24
I53
tp158
sI56
(I24
I53
tp159
sI57
(I24
I54
tp160
sI58
(I24
I54
tp161
sI59
(I24
I54
tp162
sI60
(I23
I54
tp163
sI61
(I23
I54
tp164
sI62
(I23
I54
tp165
sI63
(I23
I54
tp166
sI64
(I23
I54
tp167
sI65
(I23
I53
tp168
sI66
(I42
I53
tp169
sI67
(I42
I53
tp170
sI68
(I42
I53
tp171
sI69
(I42
I53
tp172
sI70
(I42
I53
tp173
sI71
(I42
I53
tp174
sI72
(I43
I53
tp175
sI73
(I43
I53
tp176
sI74
(I43
I53
tp177
sI75
(I43
I53
tp178
sI76
(I43
I53
tp179
sI77
(I43
I53
tp180
sI78
(I44
I53
tp181
sI79
(I44
I53
tp182
sI80
(I44
I53
tp183
sI81
(I44
I53
tp184
sI82
(I44
I53
tp185
sI83
(I44
I53
tp186
sI84
(I44
I53
tp187
sI85
(I44
I54
tp188
sI86
(I44
I54
tp189
sI87
(I44
I54
tp190
sI88
(I44
I54
tp191
sI89
(I43
I54
tp192
sI90
(I43
I54
tp193
sI91
(I44
I53
tp194
sI92
(I44
I54
tp195
sI93
(I44
I52
tp196
sI94
(I44
I50
tp197
sI95
(I44
I51
tp198
sI96
(I44
I51
tp199
sI97
(I44
I52
tp200
sI98
(I44
I52
tp201
sI99
(I44
I52
tp202
sI100
(I45
I52
tp203
sI101
(I45
I52
tp204
sI102
(I46
I52
tp205
sI103
(I47
I51
tp206
stp207
.