((dp1
I0
(I49
I54
tp2
sI1
(I25
I56
tp3
sI2
(I24
I57
tp4
sI3
(I24
I58
tp5
sI4
(I23
I59
tp6
sI5
(I23
I59
tp7
sI6
(I23
I60
tp8
sI7
(I23
I60
tp9
sI8
(I24
I60
tp10
sI9
(I25
I60
tp11
sI10
(I25
I60
tp12
sI11
(I24
I60
tp13
sI12
(I24
I60
tp14
sI13
(I24
I66
tp15
sI14
(I24
I68
tp16
sI15
(I23
I68
tp17
sI16
(I22
I68
tp18
sI17
(I22
I68
tp19
sI18
(I22
I68
tp20
sI19
(I3
I68
tp21
sI20
(I2
I68
tp22
sI21
(I1
I68
tp23
sI22
(I1
I68
tp24
sI23
(I1
I68
tp25
sI24
(I1
I68
tp26
sI25
(I1
I68
tp27
sI26
(I1
I68
tp28
sI27
(I1
I68
tp29
sI28
(I1
I68
tp30
sI29
(I1
I68
tp31
sI30
(I2
I68
tp32
sI31
(I3
I68
tp33
sI32
(I3
I68
tp34
sI33
(I4
I68
tp35
sI34
(I5
I68
tp36
sI35
(I6
I68
tp37
sI36
(I6
I68
tp38
sI37
(I7
I68
tp39
sI38
(I8
I68
tp40
sI39
(I9
I68
tp41
sI40
(I10
I68
tp42
sI41
(I10
I67
tp43
sI42
(I11
I42
tp44
sI43
(I11
I45
tp45
sI44
(I7
I45
tp46
sI45
(I6
I44
tp47
sI46
(I6
I37
tp48
sI47
(I6
I35
tp49
sI48
(I5
I22
tp50
sI49
(I5
I23
tp51
sI50
(I6
I23
tp52
sI51
(I8
I23
tp53
sI52
(I13
I22
tp54
sI53
(I13
I22
tp55
sI54
(I14
I20
tp56
sI55
(I14
I20
tp57
sI56
(I13
I19
tp58
sI57
(I12
I19
tp59
sI58
(I12
I18
tp60
sI59
(I12
I18
tp61
sI60
(I12
I17
tp62
sI61
(I12
I16
tp63
sI62
(I13
I15
tp64
s(dp65
I0
(I22
I27
tp66
sI1
(I21
I29
tp67
sI2
(I20
I30
tp68
sI3
(I19
I32
tp69
sI4
(I19
I33
tp70
sI5
(I19
I49
tp71
sI6
(I19
I50
tp72
sI7
(I19
I50
tp73
sI8
(I19
I51
tp74
sI9
(I19
I51
tp75
sI10
(I19
I51
tp76
sI11
(I20
I51
tp77
sI12
(I20
I61
tp78
sI13
(I20
I61
tp79
sI14
(I21
I61
tp80
sI15
(I21
I61
tp81
sI16
(I22
I61
tp82
sI17
(I22
I60
tp83
sI18
(I23
I59
tp84
sI19
(I23
I57
tp85
sI20
(I24
I55
tp86
sI21
(I19
I53
tp87
sI22
(I16
I53
tp88
sI23
(I4
I51
tp89
sI24
(I2
I43
tp90
sI25
(I1
I44
tp91
sI26
(I1
I45
tp92
sI27
(I1
I46
tp93
sI28
(I2
I46
tp94
sI29
(I2
I47
tp95
sI30
(I3
I47
tp96
sI31
(I9
I47
tp97
sI32
(I10
I47
tp98
sI33
(I10
I47
tp99
sI34
(I10
I47
tp100
sI35
(I9
I47
tp101
sI36
(I9
I46
tp102
sI37
(I8
I46
tp103
sI38
(I7
I45
tp104
sI39
(I7
I44
tp105
sI40
(I7
I44
tp106
sI41
(I7
I44
tp107
sI42
(I7
I45
tp108
sI43
(I8
I45
tp109
sI44
(I5
I45
tp110
sI45
(I3
I44
tp111
sI46
(I2
I35
tp112
sI47
(I1
I35
tp113
sI48
(I1
I34
tp114
sI49
(I1
I33
tp115
sI50
(I1
I33
tp116
sI51
(I1
I32
tp117
sI52
(I1
I32
tp118
sI53
(I1
I31
tp119
sI54
(I1
I30
tp120
sI55
(I1
I31
tp121
sI56
(I1
I32
tp122
sI57
(I2
I33
tp123
sI58
(I3
I34
tp124
sI59
(I4
I36
tp125
sI60
(I6
I38
tp126
sI61
(I16
I39
tp127
sI62
(I15
I40
tp128
sI63
(I15
I40
tp129
sI64
(I13
I41
tp130
sI65
(I13
I41
tp131
sI66
(I13
I41
tp132
sI67
(I14
I41
tp133
sI68
(I14
I40
tp134
sI69
(I25
I39
tp135
stp136
.