((dp1
I0
(I54
I59
tp2
sI1
(I52
I61
tp3
sI2
(I51
I62
tp4
sI3
(I50
I63
tp5
sI4
(I50
I64
tp6
sI5
(I50
I64
tp7
sI6
(I41
I65
tp8
sI7
(I39
I65
tp9
sI8
(I38
I65
tp10
sI9
(I37
I65
tp11
sI10
(I36
I65
tp12
sI11
(I35
I65
tp13
sI12
(I34
I62
tp14
sI13
(I34
I58
tp15
sI14
(I33
I57
tp16
sI15
(I33
I54
tp17
sI16
(I32
I54
tp18
sI17
(I32
I55
tp19
sI18
(I31
I55
tp20
sI19
(I31
I55
tp21
sI20
(I31
I56
tp22
sI21
(I30
I57
tp23
sI22
(I30
I57
tp24
sI23
(I29
I58
tp25
sI24
(I29
I59
tp26
sI25
(I28
I60
tp27
sI26
(I28
I61
tp28
sI27
(I27
I62
tp29
sI28
(I27
I62
tp30
sI29
(I26
I62
tp31
sI30
(I26
I62
tp32
sI31
(I26
I62
tp33
sI32
(I26
I62
tp34
sI33
(I25
I61
tp35
sI34
(I24
I59
tp36
sI35
(I24
I53
tp37
sI36
(I23
I52
tp38
sI37
(I23
I51
tp39
sI38
(I23
I49
tp40
sI39
(I23
I44
tp41
sI40
(I23
I46
tp42
sI41
(I23
I47
tp43
sI42
(I23
I49
tp44
sI43
(I23
I50
tp45
sI44
(I23
I52
tp46
sI45
(I23
I53
tp47
sI46
(I22
I55
tp48
sI47
(I22
I56
tp49
sI48
(I22
I58
tp50
sI49
(I22
I59
tp51
sI50
(I22
I60
tp52
sI51
(I22
I60
tp53
sI52
(I22
I60
tp54
sI53
(I22
I61
tp55
sI54
(I22
I61
tp56
sI55
(I21
I61
tp57
sI56
(I21
I62
tp58
sI57
(I21
I62
tp59
sI58
(I21
I62
tp60
sI59
(I19
I62
tp61
sI60
(I18
I62
tp62
sI61
(I16
I62
tp63
sI62
(I15
I63
tp64
sI63
(I14
I63
tp65
sI64
(I13
I63
tp66
sI65
(I12
I64
tp67
sI66
(I11
I64
tp68
sI67
(I10
I64
tp69
sI68
(I9
I65
tp70
sI69
(I8
I65
tp71
sI70
(I6
I65
tp72
sI71
(I5
I66
tp73
sI72
(I4
I66
tp74
sI73
(I3
I66
tp75
sI74
(I2
I67
tp76
sI75
(I1
I67
tp77
sI76
(I1
I67
tp78
sI77
(I1
I68
tp79
sI78
(I1
I68
tp80
sI79
(I1
I69
tp81
sI80
(I1
I71
tp82
sI81
(I1
I74
tp83
sI82
(I1
I75
tp84
sI83
(I1
I75
tp85
sI84
(I1
I75
tp86
sI85
(I2
I75
tp87
s(dp88
I0
(I76
I84
tp89
sI1
(I75
I84
tp90
sI2
(I74
I84
tp91
sI3
(I73
I84
tp92
sI4
(I72
I84
tp93
sI5
(I71
I84
tp94
sI6
(I70
I84
tp95
sI7
(I70
I84
tp96
sI8
(I69
I84
tp97
sI9
(I68
I84
tp98
sI10
(I67
I84
tp99
sI11
(I66
I84
tp100
sI12
(I65
I84
tp101
sI13
(I64
I76
tp102
sI14
(I63
I75
tp103
sI15
(I62
I74
tp104
sI16
(I61
I73
tp105
sI17
(I61
I72
tp106
sI18
(I60
I72
tp107
sI19
(I59
I71
tp108
sI20
(I59
I71
tp109
sI21
(I55
I70
tp110
sI22
(I46
I70
tp111
sI23
(I36
I69
tp112
sI24
(I34
I69
tp113
sI25
(I33
I68
tp114
sI26
(I29
I67
tp115
sI27
(I27
I66
tp116
sI28
(I25
I66
tp117
sI29
(I23
I65
tp118
sI30
(I21
I65
tp119
sI31
(I18
I65
tp120
sI32
(I16
I61
tp121
sI33
(I14
I57
tp122
sI34
(I12
I53
tp123
sI35
(I11
I49
tp124
sI36
(I10
I50
tp125
sI37
(I9
I51
tp126
sI38
(I8
I51
tp127
sI39
(I7
I52
tp128
sI40
(I7
I52
tp129
sI41
(I6
I53
tp130
sI42
(I6
I53
tp131
sI43
(I6
I54
tp132
sI44
(I6
I54
tp133
sI45
(I6
I55
tp134
sI46
(I6
I55
tp135
sI47
(I6
I55
tp136
sI48
(I6
I56
tp137
sI49
(I7
I56
tp138
sI50
(I3
I57
tp139
sI51
(I2
I61
tp140
sI52
(I1
I64
tp141
sI53
(I1
I67
tp142
sI54
(I1
I69
tp143
sI55
(I1
I71
tp144
sI56
(I1
I74
tp145
sI57
(I1
I77
tp146
sI58
(I1
I84
tp147
sI59
(I1
I84
tp148
sI60
(I1
I84
tp149
sI61
(I1
I84
tp150
sI62
(I2
I84
tp151
sI63
(I3
I84
tp152
sI64
(I4
I84
tp153
sI65
(I6
I84
tp154
sI66
(I71
I84
tp155
sI67
(I74
I84
tp156
sI68
(I77
I84
tp157
sI69
(I79
I84
tp158
sI70
(I80
I84
tp159
sI71
(I80
I84
tp160
sI72
(I81
I84
tp161
sI73
(I81
I84
tp162
sI74
(I81
I84
tp163
sI75
(I82
I84
tp164
sI76
(I83
I84
tp165
stp166
.