((dp1
I0
(I4
I20
tp2
sI1
(I3
I21
tp3
sI2
(I3
I22
tp4
sI3
(I3
I22
tp5
sI4
(I3
I22
tp6
sI5
(I4
I38
tp7
sI6
(I5
I40
tp8
sI7
(I6
I41
tp9
sI8
(I7
I42
tp10
sI9
(I8
I42
tp11
sI10
(I9
I43
tp12
sI11
(I10
I43
tp13
sI12
(I11
I43
tp14
sI13
(I13
I43
tp15
sI14
(I14
I43
tp16
sI15
(I15
I43
tp17
sI16
(I15
I43
tp18
sI17
(I8
I43
tp19
sI18
(I6
I43
tp20
sI19
(I5
I42
tp21
sI20
(I4
I53
tp22
sI21
(I3
I54
tp23
sI22
(I2
I55
tp24
sI23
(I1
I55
tp25
sI24
(I1
I56
tp26
sI25
(I1
I56
tp27
sI26
(I4
I56
tp28
sI27
(I12
I56
tp29
sI28
(I14
I55
tp30
sI29
(I13
I54
tp31
sI30
(I13
I53
tp32
sI31
(I12
I53
tp33
sI32
(I11
I53
tp34
sI33
(I11
I52
tp35
sI34
(I10
I52
tp36
sI35
(I9
I51
tp37
sI36
(I8
I50
tp38
sI37
(I8
I48
tp39
sI38
(I7
I45
tp40
sI39
(I7
I48
tp41
sI40
(I6
I49
tp42
sI41
(I6
I50
tp43
sI42
(I5
I50
tp44
sI43
(I5
I50
tp45
sI44
(I5
I50
tp46
sI45
(I5
I50
tp47
sI46
(I5
I49
tp48
sI47
(I6
I49
tp49
sI48
(I6
I48
tp50
sI49
(I7
I47
tp51
sI50
(I7
I45
tp52
sI51
(I7
I43
tp53
sI52
(I6
I42
tp54
sI53
(I6
I40
tp55
sI54
(I5
I38
tp56
sI55
(I5
I36
tp57
sI56
(I4
I34
tp58
sI57
(I3
I32
tp59
sI58
(I2
I30
tp60
sI59
(I1
I28
tp61
sI60
(I1
I28
tp62
sI61
(I2
I28
tp63
sI62
(I1
I28
tp64
sI63
(I1
I29
tp65
sI64
(I1
I30
tp66
sI65
(I1
I30
tp67
sI66
(I1
I31
tp68
sI67
(I1
I31
tp69
sI68
(I1
I31
tp70
sI69
(I1
I30
tp71
sI70
(I1
I5
tp72
sI71
(I1
I6
tp73
sI72
(I1
I6
tp74
sI73
(I1
I6
tp75
sI74
(I1
I6
tp76
sI75
(I1
I6
tp77
sI76
(I2
I5
tp78
s(dp79
I0
(I23
I74
tp80
sI1
(I23
I75
tp81
sI2
(I22
I75
tp82
sI3
(I1
I75
tp83
sI4
(I1
I75
tp84
sI5
(I1
I75
tp85
sI6
(I1
I75
tp86
sI7
(I1
I65
tp87
sI8
(I1
I65
tp88
sI9
(I1
I64
tp89
sI10
(I1
I64
tp90
sI11
(I1
I63
tp91
sI12
(I1
I60
tp92
sI13
(I1
I58
tp93
sI14
(I1
I56
tp94
sI15
(I1
I55
tp95
sI16
(I1
I54
tp96
sI17
(I1
I52
tp97
sI18
(I1
I52
tp98
sI19
(I1
I52
tp99
sI20
(I1
I58
tp100
sI21
(I1
I59
tp101
sI22
(I2
I59
tp102
sI23
(I9
I63
tp103
sI24
(I9
I65
tp104
sI25
(I10
I66
tp105
sI26
(I10
I67
tp106
sI27
(I11
I68
tp107
sI28
(I11
I69
tp108
sI29
(I12
I69
tp109
sI30
(I9
I69
tp110
sI31
(I7
I68
tp111
sI32
(I6
I57
tp112
sI33
(I5
I56
tp113
sI34
(I5
I56
tp114
sI35
(I5
I55
tp115
sI36
(I5
I55
tp116
sI37
(I5
I54
tp117
sI38
(I5
I54
tp118
sI39
(I6
I53
tp119
sI40
(I6
I53
tp120
sI41
(I7
I52
tp121
sI42
(I8
I52
tp122
sI43
(I10
I51
tp123
sI44
(I24
I50
tp124
sI45
(I25
I50
tp125
sI46
(I27
I49
tp126
sI47
(I26
I49
tp127
sI48
(I24
I48
tp128
sI49
(I23
I47
tp129
sI50
(I22
I45
tp130
sI51
(I21
I35
tp131
sI52
(I20
I34
tp132
sI53
(I20
I32
tp133
sI54
(I21
I29
tp134
sI55
(I22
I28
tp135
sI56
(I24
I27
tp136
sI57
(I25
I26
tp137
stp138
.