((dp1
I0
(I52
I58
tp2
sI1
(I50
I60
tp3
sI2
(I49
I61
tp4
sI3
(I48
I62
tp5
sI4
(I48
I62
tp6
sI5
(I48
I63
tp7
sI6
(I48
I63
tp8
sI7
(I48
I63
tp9
sI8
(I48
I63
tp10
sI9
(I46
I63
tp11
sI10
(I34
I63
tp12
sI11
(I33
I63
tp13
sI12
(I32
I61
tp14
sI13
(I31
I59
tp15
sI14
(I30
I62
tp16
sI15
(I29
I64
tp17
sI16
(I28
I65
tp18
sI17
(I28
I66
tp19
sI18
(I27
I66
tp20
sI19
(I26
I67
tp21
sI20
(I26
I68
tp22
sI21
(I25
I69
tp23
sI22
(I24
I69
tp24
sI23
(I24
I70
tp25
sI24
(I23
I71
tp26
sI25
(I23
I72
tp27
sI26
(I23
I72
tp28
sI27
(I23
I72
tp29
sI28
(I25
I72
tp30
sI29
(I38
I72
tp31
sI30
(I38
I72
tp32
sI31
(I38
I72
tp33
sI32
(I38
I72
tp34
sI33
(I38
I72
tp35
sI34
(I38
I69
tp36
sI35
(I38
I65
tp37
sI36
(I38
I59
tp38
sI37
(I37
I58
tp39
sI38
(I36
I58
tp40
sI39
(I35
I55
tp41
sI40
(I35
I55
tp42
sI41
(I34
I54
tp43
sI42
(I34
I55
tp44
sI43
(I34
I57
tp45
sI44
(I34
I58
tp46
sI45
(I35
I59
tp47
sI46
(I35
I60
tp48
sI47
(I35
I61
tp49
sI48
(I36
I63
tp50
sI49
(I37
I64
tp51
sI50
(I37
I65
tp52
sI51
(I36
I66
tp53
sI52
(I36
I67
tp54
sI53
(I36
I68
tp55
sI54
(I35
I69
tp56
sI55
(I35
I70
tp57
sI56
(I35
I71
tp58
sI57
(I35
I72
tp59
sI58
(I34
I72
tp60
sI59
(I34
I72
tp61
sI60
(I34
I71
tp62
sI61
(I33
I71
tp63
sI62
(I33
I70
tp64
sI63
(I33
I69
tp65
sI64
(I32
I68
tp66
sI65
(I31
I67
tp67
sI66
(I30
I65
tp68
sI67
(I26
I64
tp69
sI68
(I24
I63
tp70
sI69
(I8
I62
tp71
sI70
(I7
I61
tp72
sI71
(I6
I60
tp73
sI72
(I5
I59
tp74
sI73
(I5
I58
tp75
sI74
(I5
I57
tp76
sI75
(I5
I56
tp77
sI76
(I5
I55
tp78
sI77
(I4
I55
tp79
sI78
(I2
I54
tp80
sI79
(I1
I55
tp81
sI80
(I1
I59
tp82
sI81
(I1
I60
tp83
sI82
(I1
I61
tp84
sI83
(I1
I61
tp85
sI84
(I1
I61
tp86
sI85
(I1
I5
tp87
sI86
(I1
I3
tp88
sI87
(I1
I2
tp89
s(dp90
I0
(I81
I86
tp91
sI1
(I79
I86
tp92
sI2
(I78
I86
tp93
sI3
(I78
I86
tp94
sI4
(I77
I85
tp95
sI5
(I72
I85
tp96
sI6
(I71
I84
tp97
sI7
(I70
I83
tp98
sI8
(I69
I82
tp99
sI9
(I69
I81
tp100
sI10
(I69
I80
tp101
sI11
(I69
I81
tp102
sI12
(I69
I81
tp103
sI13
(I69
I81
tp104
sI14
(I69
I81
tp105
sI15
(I69
I81
tp106
sI16
(I69
I80
tp107
sI17
(I69
I80
tp108
sI18
(I69
I80
tp109
sI19
(I69
I80
tp110
sI20
(I69
I79
tp111
sI21
(I69
I79
tp112
sI22
(I69
I79
tp113
sI23
(I24
I79
tp114
sI24
(I22
I79
tp115
sI25
(I21
I79
tp116
sI26
(I19
I78
tp117
sI27
(I18
I78
tp118
sI28
(I16
I78
tp119
sI29
(I15
I78
tp120
sI30
(I14
I78
tp121
sI31
(I13
I78
tp122
sI32
(I12
I78
tp123
sI33
(I11
I77
tp124
sI34
(I10
I77
tp125
sI35
(I10
I77
tp126
sI36
(I10
I77
tp127
sI37
(I10
I76
tp128
sI38
(I10
I76
tp129
sI39
(I10
I75
tp130
sI40
(I10
I73
tp131
sI41
(I10
I71
tp132
sI42
(I10
I70
tp133
sI43
(I10
I84
tp134
sI44
(I10
I84
tp135
sI45
(I10
I84
tp136
sI46
(I9
I84
tp137
sI47
(I9
I84
tp138
sI48
(I3
I84
tp139
sI49
(I2
I83
tp140
sI50
(I1
I83
tp141
sI51
(I1
I84
tp142
sI52
(I1
I84
tp143
sI53
(I1
I84
tp144
sI54
(I1
I84
tp145
sI55
(I1
I84
tp146
sI56
(I1
I84
tp147
sI57
(I1
I84
tp148
sI58
(I1
I84
tp149
sI59
(I1
I84
tp150
sI60
(I1
I84
tp151
sI61
(I2
I84
tp152
sI62
(I3
I69
tp153
sI63
(I5
I68
tp154
sI64
(I15
I67
tp155
sI65
(I16
I66
tp156
sI66
(I17
I65
tp157
sI67
(I19
I65
tp158
sI68
(I20
I64
tp159
sI69
(I21
I63
tp160
sI70
(I23
I62
tp161
sI71
(I24
I61
tp162
sI72
(I25
I59
tp163
sI73
(I27
I32
tp164
stp165
.