(dp1
S'block'
p2
(I83
I0
tp3
sS'intro-10'
p4
(I54
I0
tp5
sS'intro-11'
p6
(I38
I0
tp7
sS'tele-02'
p8
(I67
I0
tp9
sS'tele-03'
p10
(I67
I0
tp11
sS'tele-00'
p12
(I67
I0
tp13
sS'236236m-01'
p14
(I40
I0
tp15
sS'tele-04'
p16
(I67
I0
tp17
sS'send'
p18
(I6
I0
tp19
sS's-00'
p20
(I36
I0
tp21
sS'236236mext'
p22
(I0
I0
tp23
sS'mend'
p24
(I6
I0
tp25
sS'stand'
p26
(I38
I0
tp27
sS'ball'
p28
(I32
I0
tp29
sS'236236mend'
p30
(I24
I0
tp31
sS'intro-09'
p32
(I54
I0
tp33
sS'intro-08'
p34
(I66
I0
tp35
sS'intro-07'
p36
(I67
I0
tp37
sS'intro-06'
p38
(I67
I0
tp39
sS'intro-05'
p40
(I67
I0
tp41
sS'intro-04'
p42
(I67
I0
tp43
sS'w-00'
p44
(I36
I0
tp45
sS'236236m-00'
p46
(I36
I0
tp47
sS'intro-01'
p48
(I67
I0
tp49
sS'intro-00'
p50
(I67
I0
tp51
sS'tele-01'
p52
(I67
I0
tp53
sS'sext'
p54
(I1
I0
tp55
sS'wext'
p56
(I1
I0
tp57
sS'gaurd-01'
p58
(I83
I0
tp59
sS'intro-03'
p60
(I67
I0
tp61
sS'm-00'
p62
(I37
I0
tp63
sS'intro-02'
p64
(I67
I0
tp65
sS'236236-00'
p66
(I36
I0
tp67
sS'mext'
p68
(I1
I0
tp69
sS'236m-00'
p70
(I36
I0
tp71
sS'236m-01'
p72
(I36
I0
tp73
sS'236m-02'
p74
(I36
I0
tp75
sS'236m-03'
p76
(I36
I0
tp77
sS'236m-04'
p78
(I36
I0
tp79
sS'236m-05'
p80
(I36
I0
tp81
sS'236m-06'
p82
(I36
I0
tp83
sS'wend'
p84
(I6
I0
tp85
sS'hit-00'
p86
(I44
I0
tp87
sS'hit-01'
p88
(I44
I0
tp89
s.