((dp1
I64
(I50
I99
tp2
sI65
(I50
I105
tp3
sI66
(I50
I99
tp4
sI67
(I51
I95
tp5
sI68
(I52
I92
tp6
sI69
(I54
I89
tp7
sI61
(I54
I89
tp8
sI62
(I52
I92
tp9
sI63
(I51
I95
tp10
s(dp11
I50
(I64
I66
tp12
sI51
(I63
I67
tp13
sI52
(I62
I68
tp14
sI53
(I62
I68
tp15
sI54
(I61
I69
tp16
sI55
(I61
I69
tp17
sI56
(I61
I69
tp18
sI57
(I61
I69
tp19
sI58
(I61
I69
tp20
sI59
(I61
I69
tp21
sI60
(I61
I69
tp22
sI61
(I61
I69
tp23
sI62
(I61
I69
tp24
sI63
(I61
I69
tp25
sI64
(I61
I69
tp26
sI65
(I61
I69
tp27
sI66
(I61
I69
tp28
sI67
(I61
I69
tp29
sI68
(I61
I69
tp30
sI69
(I61
I69
tp31
sI70
(I61
I69
tp32
sI71
(I61
I69
tp33
sI72
(I61
I69
tp34
sI73
(I61
I69
tp35
sI74
(I61
I69
tp36
sI75
(I61
I69
tp37
sI76
(I61
I69
tp38
sI77
(I61
I69
tp39
sI78
(I61
I69
tp40
sI79
(I61
I69
tp41
sI80
(I61
I69
tp42
sI81
(I61
I69
tp43
sI82
(I61
I69
tp44
sI83
(I61
I69
tp45
sI84
(I61
I69
tp46
sI85
(I61
I69
tp47
sI86
(I61
I69
tp48
sI87
(I61
I69
tp49
sI88
(I61
I69
tp50
sI89
(I61
I69
tp51
sI90
(I62
I68
tp52
sI91
(I62
I68
tp53
sI92
(I62
I68
tp54
sI93
(I63
I67
tp55
sI94
(I63
I67
tp56
sI95
(I63
I67
tp57
sI96
(I64
I66
tp58
sI97
(I64
I66
tp59
sI98
(I64
I66
tp60
sI99
(I64
I66
tp61
sI100
(I65
I65
tp62
sI101
(I65
I65
tp63
sI102
(I65
I65
tp64
sI103
(I65
I65
tp65
sI104
(I65
I65
tp66
sI105
(I65
I65
tp67
stp68
.