((dp1
I0
(I74
I92
tp2
sI1
(I68
I98
tp3
sI2
(I63
I103
tp4
sI3
(I60
I106
tp5
sI4
(I56
I110
tp6
sI5
(I54
I112
tp7
sI6
(I51
I115
tp8
sI7
(I49
I117
tp9
sI8
(I47
I119
tp10
sI9
(I45
I121
tp11
sI10
(I43
I123
tp12
sI11
(I41
I125
tp13
sI12
(I40
I126
tp14
sI13
(I38
I128
tp15
sI14
(I36
I130
tp16
sI15
(I35
I131
tp17
sI16
(I34
I132
tp18
sI17
(I32
I134
tp19
sI18
(I31
I135
tp20
sI19
(I30
I136
tp21
sI20
(I29
I137
tp22
sI21
(I28
I138
tp23
sI22
(I26
I140
tp24
sI23
(I25
I141
tp25
sI24
(I24
I142
tp26
sI25
(I23
I143
tp27
sI26
(I22
I144
tp28
sI27
(I22
I144
tp29
sI28
(I21
I145
tp30
sI29
(I20
I146
tp31
sI30
(I19
I147
tp32
sI31
(I18
I148
tp33
sI32
(I17
I149
tp34
sI33
(I17
I149
tp35
sI34
(I16
I150
tp36
sI35
(I15
I151
tp37
sI36
(I14
I152
tp38
sI37
(I14
I152
tp39
sI38
(I13
I153
tp40
sI39
(I13
I153
tp41
sI40
(I12
I154
tp42
sI41
(I11
I155
tp43
sI42
(I11
I155
tp44
sI43
(I10
I156
tp45
sI44
(I10
I156
tp46
sI45
(I9
I157
tp47
sI46
(I9
I157
tp48
sI47
(I8
I158
tp49
sI48
(I8
I158
tp50
sI49
(I7
I159
tp51
sI50
(I7
I159
tp52
sI51
(I6
I160
tp53
sI52
(I6
I160
tp54
sI53
(I6
I160
tp55
sI54
(I5
I161
tp56
sI55
(I5
I161
tp57
sI56
(I4
I162
tp58
sI57
(I4
I162
tp59
sI58
(I4
I162
tp60
sI59
(I4
I162
tp61
sI60
(I3
I163
tp62
sI61
(I3
I163
tp63
sI62
(I3
I163
tp64
sI63
(I2
I164
tp65
sI64
(I2
I164
tp66
sI65
(I2
I164
tp67
sI66
(I2
I164
tp68
sI67
(I2
I164
tp69
sI68
(I1
I165
tp70
sI69
(I1
I165
tp71
sI70
(I1
I165
tp72
sI71
(I1
I165
tp73
sI72
(I1
I165
tp74
sI73
(I1
I165
tp75
sI74
(I1
I165
tp76
sI75
(I1
I165
tp77
sI76
(I1
I165
tp78
sI77
(I1
I165
tp79
sI78
(I1
I165
tp80
sI79
(I1
I165
tp81
sI80
(I1
I165
tp82
sI81
(I1
I165
tp83
sI82
(I1
I165
tp84
sI83
(I1
I165
tp85
sI84
(I1
I165
tp86
sI85
(I1
I165
tp87
sI86
(I1
I165
tp88
sI87
(I1
I165
tp89
sI88
(I1
I165
tp90
sI89
(I1
I165
tp91
sI90
(I1
I165
tp92
sI91
(I1
I165
tp93
sI92
(I1
I165
tp94
sI93
(I1
I165
tp95
sI94
(I1
I165
tp96
sI95
(I1
I165
tp97
sI96
(I1
I165
tp98
sI97
(I1
I165
tp99
sI98
(I1
I165
tp100
sI99
(I2
I164
tp101
sI100
(I2
I164
tp102
sI101
(I2
I164
tp103
sI102
(I2
I164
tp104
sI103
(I2
I164
tp105
sI104
(I3
I163
tp106
sI105
(I3
I163
tp107
sI106
(I3
I163
tp108
sI107
(I4
I162
tp109
sI108
(I4
I162
tp110
sI109
(I4
I162
tp111
sI110
(I4
I162
tp112
sI111
(I5
I161
tp113
sI112
(I5
I161
tp114
sI113
(I6
I160
tp115
sI114
(I6
I160
tp116
sI115
(I6
I160
tp117
sI116
(I7
I159
tp118
sI117
(I7
I159
tp119
sI118
(I8
I158
tp120
sI119
(I8
I158
tp121
sI120
(I9
I157
tp122
sI121
(I9
I157
tp123
sI122
(I10
I156
tp124
sI123
(I10
I156
tp125
sI124
(I11
I155
tp126
sI125
(I11
I155
tp127
sI126
(I12
I154
tp128
sI127
(I13
I153
tp129
sI128
(I13
I153
tp130
sI129
(I14
I152
tp131
sI130
(I14
I152
tp132
sI131
(I15
I151
tp133
sI132
(I16
I150
tp134
sI133
(I17
I149
tp135
sI134
(I17
I149
tp136
sI135
(I18
I148
tp137
sI136
(I19
I147
tp138
sI137
(I20
I146
tp139
sI138
(I21
I145
tp140
sI139
(I22
I144
tp141
sI140
(I22
I144
tp142
sI141
(I23
I143
tp143
sI142
(I24
I142
tp144
sI143
(I25
I141
tp145
sI144
(I26
I140
tp146
sI145
(I28
I138
tp147
sI146
(I29
I137
tp148
sI147
(I30
I136
tp149
sI148
(I31
I135
tp150
sI149
(I32
I134
tp151
sI150
(I34
I132
tp152
sI151
(I35
I131
tp153
sI152
(I36
I130
tp154
sI153
(I38
I128
tp155
sI154
(I40
I126
tp156
sI155
(I41
I125
tp157
sI156
(I43
I123
tp158
sI157
(I45
I121
tp159
sI158
(I47
I119
tp160
sI159
(I49
I117
tp161
sI160
(I51
I115
tp162
sI161
(I54
I112
tp163
sI162
(I56
I110
tp164
sI163
(I60
I106
tp165
sI164
(I63
I103
tp166
sI165
(I68
I98
tp167
sI166
(I74
I92
tp168
s(dp169
I0
(I74
I92
tp170
sI1
(I68
I98
tp171
sI2
(I63
I103
tp172
sI3
(I60
I106
tp173
sI4
(I56
I110
tp174
sI5
(I54
I112
tp175
sI6
(I51
I115
tp176
sI7
(I49
I117
tp177
sI8
(I47
I119
tp178
sI9
(I45
I121
tp179
sI10
(I43
I123
tp180
sI11
(I41
I125
tp181
sI12
(I40
I126
tp182
sI13
(I38
I128
tp183
sI14
(I36
I130
tp184
sI15
(I35
I131
tp185
sI16
(I34
I132
tp186
sI17
(I32
I134
tp187
sI18
(I31
I135
tp188
sI19
(I30
I136
tp189
sI20
(I29
I137
tp190
sI21
(I28
I138
tp191
sI22
(I26
I140
tp192
sI23
(I25
I141
tp193
sI24
(I24
I142
tp194
sI25
(I23
I143
tp195
sI26
(I22
I144
tp196
sI27
(I22
I144
tp197
sI28
(I21
I145
tp198
sI29
(I20
I146
tp199
sI30
(I19
I147
tp200
sI31
(I18
I148
tp201
sI32
(I17
I149
tp202
sI33
(I17
I149
tp203
sI34
(I16
I150
tp204
sI35
(I15
I151
tp205
sI36
(I14
I152
tp206
sI37
(I14
I152
tp207
sI38
(I13
I153
tp208
sI39
(I13
I153
tp209
sI40
(I12
I154
tp210
sI41
(I11
I155
tp211
sI42
(I11
I155
tp212
sI43
(I10
I156
tp213
sI44
(I10
I156
tp214
sI45
(I9
I157
tp215
sI46
(I9
I157
tp216
sI47
(I8
I158
tp217
sI48
(I8
I158
tp218
sI49
(I7
I159
tp219
sI50
(I7
I159
tp220
sI51
(I6
I160
tp221
sI52
(I6
I160
tp222
sI53
(I6
I160
tp223
sI54
(I5
I161
tp224
sI55
(I5
I161
tp225
sI56
(I4
I162
tp226
sI57
(I4
I162
tp227
sI58
(I4
I162
tp228
sI59
(I4
I162
tp229
sI60
(I3
I163
tp230
sI61
(I3
I163
tp231
sI62
(I3
I163
tp232
sI63
(I2
I164
tp233
sI64
(I2
I164
tp234
sI65
(I2
I164
tp235
sI66
(I2
I164
tp236
sI67
(I2
I164
tp237
sI68
(I1
I165
tp238
sI69
(I1
I165
tp239
sI70
(I1
I165
tp240
sI71
(I1
I165
tp241
sI72
(I1
I165
tp242
sI73
(I1
I165
tp243
sI74
(I1
I165
tp244
sI75
(I1
I165
tp245
sI76
(I1
I165
tp246
sI77
(I1
I165
tp247
sI78
(I1
I165
tp248
sI79
(I1
I165
tp249
sI80
(I1
I165
tp250
sI81
(I1
I165
tp251
sI82
(I1
I165
tp252
sI83
(I1
I165
tp253
sI84
(I1
I165
tp254
sI85
(I1
I165
tp255
sI86
(I1
I165
tp256
sI87
(I1
I165
tp257
sI88
(I1
I165
tp258
sI89
(I1
I165
tp259
sI90
(I1
I165
tp260
sI91
(I1
I165
tp261
sI92
(I1
I165
tp262
sI93
(I1
I165
tp263
sI94
(I1
I165
tp264
sI95
(I1
I165
tp265
sI96
(I1
I165
tp266
sI97
(I1
I165
tp267
sI98
(I1
I165
tp268
sI99
(I2
I164
tp269
sI100
(I2
I164
tp270
sI101
(I2
I164
tp271
sI102
(I2
I164
tp272
sI103
(I2
I164
tp273
sI104
(I3
I163
tp274
sI105
(I3
I163
tp275
sI106
(I3
I163
tp276
sI107
(I4
I162
tp277
sI108
(I4
I162
tp278
sI109
(I4
I162
tp279
sI110
(I4
I162
tp280
sI111
(I5
I161
tp281
sI112
(I5
I161
tp282
sI113
(I6
I160
tp283
sI114
(I6
I160
tp284
sI115
(I6
I160
tp285
sI116
(I7
I159
tp286
sI117
(I7
I159
tp287
sI118
(I8
I158
tp288
sI119
(I8
I158
tp289
sI120
(I9
I157
tp290
sI121
(I9
I157
tp291
sI122
(I10
I156
tp292
sI123
(I10
I156
tp293
sI124
(I11
I155
tp294
sI125
(I11
I155
tp295
sI126
(I12
I154
tp296
sI127
(I13
I153
tp297
sI128
(I13
I153
tp298
sI129
(I14
I152
tp299
sI130
(I14
I152
tp300
sI131
(I15
I151
tp301
sI132
(I16
I150
tp302
sI133
(I17
I149
tp303
sI134
(I17
I149
tp304
sI135
(I18
I148
tp305
sI136
(I19
I147
tp306
sI137
(I20
I146
tp307
sI138
(I21
I145
tp308
sI139
(I22
I144
tp309
sI140
(I22
I144
tp310
sI141
(I23
I143
tp311
sI142
(I24
I142
tp312
sI143
(I25
I141
tp313
sI144
(I26
I140
tp314
sI145
(I28
I138
tp315
sI146
(I29
I137
tp316
sI147
(I30
I136
tp317
sI148
(I31
I135
tp318
sI149
(I32
I134
tp319
sI150
(I34
I132
tp320
sI151
(I35
I131
tp321
sI152
(I36
I130
tp322
sI153
(I38
I128
tp323
sI154
(I40
I126
tp324
sI155
(I41
I125
tp325
sI156
(I43
I123
tp326
sI157
(I45
I121
tp327
sI158
(I47
I119
tp328
sI159
(I49
I117
tp329
sI160
(I51
I115
tp330
sI161
(I54
I112
tp331
sI162
(I56
I110
tp332
sI163
(I60
I106
tp333
sI164
(I63
I103
tp334
sI165
(I68
I98
tp335
sI166
(I74
I92
tp336
stp337
.