((dp1
I0
(I70
I70
tp2
sI1
(I38
I71
tp3
sI2
(I37
I72
tp4
sI3
(I37
I72
tp5
sI4
(I37
I72
tp6
sI5
(I37
I72
tp7
sI6
(I37
I72
tp8
sI7
(I38
I72
tp9
sI8
(I38
I72
tp10
sI9
(I38
I72
tp11
sI10
(I38
I73
tp12
sI11
(I38
I74
tp13
sI12
(I39
I75
tp14
sI13
(I39
I76
tp15
sI14
(I39
I76
tp16
sI15
(I39
I77
tp17
sI16
(I39
I77
tp18
sI17
(I40
I77
tp19
sI18
(I40
I78
tp20
sI19
(I40
I78
tp21
sI20
(I40
I78
tp22
sI21
(I41
I78
tp23
sI22
(I41
I79
tp24
sI23
(I42
I79
tp25
sI24
(I44
I79
tp26
sI25
(I43
I79
tp27
sI26
(I42
I79
tp28
sI27
(I40
I78
tp29
sI28
(I39
I78
tp30
sI29
(I38
I77
tp31
sI30
(I37
I77
tp32
sI31
(I37
I77
tp33
sI32
(I38
I78
tp34
sI33
(I39
I78
tp35
sI34
(I40
I79
tp36
sI35
(I42
I79
tp37
sI36
(I42
I80
tp38
sI37
(I44
I81
tp39
sI38
(I44
I82
tp40
sI39
(I41
I82
tp41
sI40
(I39
I82
tp42
sI41
(I38
I80
tp43
sI42
(I37
I79
tp44
sI43
(I36
I74
tp45
sI44
(I35
I75
tp46
sI45
(I34
I76
tp47
sI46
(I34
I77
tp48
sI47
(I34
I78
tp49
sI48
(I34
I78
tp50
sI49
(I34
I79
tp51
sI50
(I35
I79
tp52
sI51
(I35
I79
tp53
sI52
(I36
I79
tp54
sI53
(I35
I79
tp55
sI54
(I35
I79
tp56
sI55
(I34
I80
tp57
sI56
(I34
I80
tp58
sI57
(I34
I79
tp59
sI58
(I35
I79
tp60
sI59
(I35
I80
tp61
sI60
(I35
I80
tp62
sI61
(I34
I80
tp63
sI62
(I34
I81
tp64
sI63
(I34
I81
tp65
sI64
(I33
I81
tp66
sI65
(I33
I82
tp67
sI66
(I33
I82
tp68
sI67
(I32
I82
tp69
sI68
(I32
I83
tp70
sI69
(I31
I83
tp71
sI70
(I31
I84
tp72
sI71
(I30
I84
tp73
sI72
(I30
I85
tp74
sI73
(I29
I85
tp75
sI74
(I29
I85
tp76
sI75
(I29
I86
tp77
sI76
(I29
I86
tp78
sI77
(I28
I87
tp79
sI78
(I28
I88
tp80
sI79
(I28
I89
tp81
sI80
(I27
I89
tp82
sI81
(I27
I88
tp83
sI82
(I26
I83
tp84
sI83
(I25
I84
tp85
sI84
(I24
I85
tp86
sI85
(I23
I86
tp87
sI86
(I23
I86
tp88
sI87
(I23
I87
tp89
sI88
(I23
I88
tp90
sI89
(I24
I88
tp91
sI90
(I39
I89
tp92
sI91
(I39
I89
tp93
sI92
(I38
I90
tp94
sI93
(I38
I90
tp95
sI94
(I37
I91
tp96
sI95
(I37
I91
tp97
sI96
(I37
I92
tp98
sI97
(I36
I92
tp99
sI98
(I36
I93
tp100
sI99
(I36
I93
tp101
sI100
(I35
I94
tp102
sI101
(I35
I95
tp103
sI102
(I35
I95
tp104
sI103
(I35
I95
tp105
sI104
(I34
I95
tp106
sI105
(I34
I96
tp107
sI106
(I34
I96
tp108
sI107
(I33
I96
tp109
sI108
(I33
I97
tp110
sI109
(I33
I97
tp111
sI110
(I33
I97
tp112
sI111
(I33
I97
tp113
sI112
(I33
I97
tp114
sI113
(I32
I97
tp115
sI114
(I32
I97
tp116
sI115
(I32
I98
tp117
sI116
(I33
I98
tp118
sI117
(I34
I98
tp119
sI118
(I36
I98
tp120
sI119
(I37
I97
tp121
sI120
(I39
I93
tp122
sI121
(I40
I87
tp123
sI122
(I42
I84
tp124
sI123
(I47
I74
tp125
sI124
(I51
I71
tp126
sI125
(I51
I71
tp127
sI126
(I51
I71
tp128
sI127
(I51
I71
tp129
sI128
(I51
I71
tp130
sI129
(I51
I71
tp131
sI130
(I51
I71
tp132
sI131
(I51
I71
tp133
sI132
(I51
I71
tp134
sI133
(I51
I71
tp135
sI134
(I51
I71
tp136
sI135
(I50
I71
tp137
sI136
(I50
I71
tp138
sI137
(I50
I71
tp139
sI138
(I50
I71
tp140
sI139
(I50
I71
tp141
sI140
(I50
I71
tp142
sI141
(I50
I71
tp143
sI142
(I50
I71
tp144
sI143
(I50
I71
tp145
sI144
(I51
I71
tp146
sI145
(I51
I71
tp147
sI146
(I51
I71
tp148
sI147
(I52
I71
tp149
sI148
(I52
I71
tp150
sI149
(I53
I71
tp151
sI150
(I53
I70
tp152
sI151
(I54
I70
tp153
sI152
(I55
I69
tp154
sI153
(I56
I68
tp155
sI154
(I57
I59
tp156
sI164
(I49
I80
tp157
sI165
(I37
I92
tp158
sI166
(I30
I99
tp159
sI167
(I24
I105
tp160
sI168
(I19
I110
tp161
sI169
(I15
I114
tp162
sI170
(I12
I117
tp163
sI171
(I9
I120
tp164
sI172
(I6
I123
tp165
sI173
(I4
I125
tp166
sI174
(I3
I126
tp167
sI175
(I1
I128
tp168
sI176
(I1
I129
tp169
sI177
(I4
I130
tp170
sI178
(I8
I130
tp171
sI179
(I12
I130
tp172
sI180
(I16
I130
tp173
sI181
(I20
I130
tp174
sI182
(I24
I130
tp175
sI183
(I28
I130
tp176
sI184
(I33
I129
tp177
sI185
(I37
I128
tp178
sI186
(I41
I126
tp179
sI187
(I45
I125
tp180
sI188
(I49
I123
tp181
sI189
(I53
I120
tp182
sI190
(I57
I117
tp183
sI191
(I62
I114
tp184
sI192
(I66
I110
tp185
sI193
(I70
I105
tp186
sI194
(I74
I99
tp187
sI195
(I78
I92
tp188
s(dp189
I0
(I176
I176
tp190
sI1
(I175
I176
tp191
sI2
(I175
I176
tp192
sI3
(I174
I176
tp193
sI4
(I173
I177
tp194
sI5
(I173
I177
tp195
sI6
(I172
I177
tp196
sI7
(I172
I177
tp197
sI8
(I172
I178
tp198
sI9
(I171
I178
tp199
sI10
(I171
I178
tp200
sI11
(I171
I178
tp201
sI12
(I170
I179
tp202
sI13
(I170
I179
tp203
sI14
(I170
I179
tp204
sI15
(I169
I179
tp205
sI16
(I169
I180
tp206
sI17
(I169
I180
tp207
sI18
(I169
I180
tp208
sI19
(I168
I180
tp209
sI20
(I168
I181
tp210
sI21
(I168
I181
tp211
sI22
(I168
I181
tp212
sI23
(I85
I181
tp213
sI24
(I84
I182
tp214
sI25
(I83
I182
tp215
sI26
(I82
I182
tp216
sI27
(I80
I182
tp217
sI28
(I77
I183
tp218
sI29
(I73
I183
tp219
sI30
(I71
I183
tp220
sI31
(I69
I183
tp221
sI32
(I67
I183
tp222
sI33
(I64
I184
tp223
sI34
(I45
I184
tp224
sI35
(I44
I184
tp225
sI36
(I43
I184
tp226
sI37
(I2
I185
tp227
sI38
(I1
I185
tp228
sI39
(I1
I185
tp229
sI40
(I1
I185
tp230
sI41
(I1
I186
tp231
sI42
(I2
I186
tp232
sI43
(I2
I186
tp233
sI44
(I3
I186
tp234
sI45
(I3
I187
tp235
sI46
(I4
I187
tp236
sI47
(I5
I187
tp237
sI48
(I5
I187
tp238
sI49
(I6
I188
tp239
sI50
(I7
I188
tp240
sI51
(I8
I188
tp241
sI52
(I9
I188
tp242
sI53
(I8
I189
tp243
sI54
(I7
I189
tp244
sI55
(I7
I189
tp245
sI56
(I6
I189
tp246
sI57
(I6
I190
tp247
sI58
(I5
I190
tp248
sI59
(I5
I190
tp249
sI60
(I5
I190
tp250
sI61
(I5
I190
tp251
sI62
(I5
I191
tp252
sI63
(I5
I191
tp253
sI64
(I5
I191
tp254
sI65
(I5
I191
tp255
sI66
(I4
I192
tp256
sI67
(I3
I192
tp257
sI68
(I2
I192
tp258
sI69
(I1
I192
tp259
sI70
(I1
I193
tp260
sI71
(I1
I193
tp261
sI72
(I2
I193
tp262
sI73
(I10
I193
tp263
sI74
(I11
I194
tp264
sI75
(I12
I194
tp265
sI76
(I13
I194
tp266
sI77
(I15
I194
tp267
sI78
(I18
I194
tp268
sI79
(I22
I194
tp269
sI80
(I36
I194
tp270
sI81
(I37
I194
tp271
sI82
(I38
I194
tp272
sI83
(I68
I194
tp273
sI84
(I70
I194
tp274
sI85
(I72
I194
tp275
sI86
(I75
I194
tp276
sI87
(I77
I194
tp277
sI88
(I78
I194
tp278
sI89
(I79
I194
tp279
sI90
(I92
I194
tp280
sI91
(I94
I194
tp281
sI92
(I96
I194
tp282
sI93
(I98
I194
tp283
sI94
(I100
I194
tp284
sI95
(I101
I194
tp285
sI96
(I105
I194
tp286
sI97
(I108
I194
tp287
sI98
(I115
I194
tp288
sI99
(I166
I194
tp289
sI100
(I167
I193
tp290
sI101
(I167
I193
tp291
sI102
(I167
I193
tp292
sI103
(I167
I193
tp293
sI104
(I167
I193
tp294
sI105
(I167
I193
tp295
sI106
(I168
I192
tp296
sI107
(I168
I192
tp297
sI108
(I168
I192
tp298
sI109
(I168
I192
tp299
sI110
(I168
I192
tp300
sI111
(I169
I191
tp301
sI112
(I169
I191
tp302
sI113
(I169
I191
tp303
sI114
(I169
I191
tp304
sI115
(I170
I190
tp305
sI116
(I170
I190
tp306
sI117
(I170
I190
tp307
sI118
(I171
I189
tp308
sI119
(I171
I189
tp309
sI120
(I171
I189
tp310
sI121
(I172
I188
tp311
sI122
(I172
I188
tp312
sI123
(I172
I188
tp313
sI124
(I173
I187
tp314
sI125
(I173
I187
tp315
sI126
(I174
I186
tp316
sI127
(I175
I185
tp317
sI128
(I175
I185
tp318
sI129
(I176
I184
tp319
sI130
(I177
I183
tp320
sI131
(I179
I181
tp321
stp322
.