((dp1
I0
(I72
I72
tp2
sI1
(I40
I73
tp3
sI2
(I39
I74
tp4
sI3
(I39
I74
tp5
sI4
(I39
I74
tp6
sI5
(I39
I74
tp7
sI6
(I39
I74
tp8
sI7
(I40
I74
tp9
sI8
(I40
I74
tp10
sI9
(I40
I74
tp11
sI10
(I40
I75
tp12
sI11
(I40
I76
tp13
sI12
(I41
I77
tp14
sI13
(I41
I78
tp15
sI14
(I41
I78
tp16
sI15
(I41
I79
tp17
sI16
(I41
I79
tp18
sI17
(I42
I79
tp19
sI18
(I42
I80
tp20
sI19
(I42
I80
tp21
sI20
(I42
I80
tp22
sI21
(I43
I80
tp23
sI22
(I43
I81
tp24
sI23
(I44
I81
tp25
sI24
(I46
I81
tp26
sI25
(I45
I81
tp27
sI26
(I44
I81
tp28
sI27
(I42
I80
tp29
sI28
(I41
I80
tp30
sI29
(I40
I79
tp31
sI30
(I39
I79
tp32
sI31
(I39
I79
tp33
sI32
(I40
I80
tp34
sI33
(I41
I80
tp35
sI34
(I42
I81
tp36
sI35
(I44
I81
tp37
sI36
(I44
I82
tp38
sI37
(I46
I83
tp39
sI38
(I46
I84
tp40
sI39
(I43
I84
tp41
sI40
(I41
I84
tp42
sI41
(I40
I82
tp43
sI42
(I39
I81
tp44
sI43
(I38
I76
tp45
sI44
(I37
I77
tp46
sI45
(I36
I78
tp47
sI46
(I36
I79
tp48
sI47
(I36
I80
tp49
sI48
(I36
I80
tp50
sI49
(I36
I81
tp51
sI50
(I37
I81
tp52
sI51
(I37
I81
tp53
sI52
(I38
I81
tp54
sI53
(I37
I81
tp55
sI54
(I37
I81
tp56
sI55
(I36
I82
tp57
sI56
(I36
I82
tp58
sI57
(I36
I81
tp59
sI58
(I37
I81
tp60
sI59
(I37
I82
tp61
sI60
(I37
I82
tp62
sI61
(I36
I82
tp63
sI62
(I36
I83
tp64
sI63
(I36
I83
tp65
sI64
(I35
I83
tp66
sI65
(I35
I84
tp67
sI66
(I35
I84
tp68
sI67
(I34
I84
tp69
sI68
(I34
I85
tp70
sI69
(I33
I85
tp71
sI70
(I33
I86
tp72
sI71
(I32
I86
tp73
sI72
(I32
I87
tp74
sI73
(I31
I87
tp75
sI74
(I31
I87
tp76
sI75
(I31
I88
tp77
sI76
(I31
I88
tp78
sI77
(I30
I89
tp79
sI78
(I30
I90
tp80
sI79
(I30
I91
tp81
sI80
(I29
I91
tp82
sI81
(I29
I90
tp83
sI82
(I28
I85
tp84
sI83
(I27
I86
tp85
sI84
(I26
I87
tp86
sI85
(I25
I88
tp87
sI86
(I25
I88
tp88
sI87
(I25
I89
tp89
sI88
(I25
I90
tp90
sI89
(I26
I90
tp91
sI90
(I41
I91
tp92
sI91
(I41
I91
tp93
sI92
(I40
I92
tp94
sI93
(I40
I92
tp95
sI94
(I39
I93
tp96
sI95
(I39
I93
tp97
sI96
(I39
I94
tp98
sI97
(I38
I94
tp99
sI98
(I38
I95
tp100
sI99
(I38
I95
tp101
sI100
(I37
I96
tp102
sI101
(I37
I97
tp103
sI102
(I37
I97
tp104
sI103
(I37
I97
tp105
sI104
(I36
I97
tp106
sI105
(I36
I98
tp107
sI106
(I36
I98
tp108
sI107
(I35
I98
tp109
sI108
(I35
I99
tp110
sI109
(I35
I99
tp111
sI110
(I35
I99
tp112
sI111
(I35
I99
tp113
sI112
(I35
I99
tp114
sI113
(I34
I99
tp115
sI114
(I34
I99
tp116
sI115
(I34
I100
tp117
sI116
(I35
I100
tp118
sI117
(I36
I100
tp119
sI118
(I38
I100
tp120
sI119
(I39
I99
tp121
sI120
(I41
I95
tp122
sI121
(I42
I89
tp123
sI122
(I44
I86
tp124
sI123
(I49
I76
tp125
sI124
(I53
I73
tp126
sI125
(I53
I73
tp127
sI126
(I53
I73
tp128
sI127
(I53
I73
tp129
sI128
(I53
I73
tp130
sI129
(I53
I73
tp131
sI130
(I53
I73
tp132
sI131
(I53
I73
tp133
sI132
(I53
I73
tp134
sI133
(I53
I73
tp135
sI134
(I53
I73
tp136
sI135
(I52
I73
tp137
sI136
(I52
I73
tp138
sI137
(I52
I73
tp139
sI138
(I52
I73
tp140
sI139
(I52
I73
tp141
sI140
(I52
I73
tp142
sI141
(I52
I73
tp143
sI142
(I52
I73
tp144
sI143
(I52
I73
tp145
sI144
(I53
I73
tp146
sI145
(I53
I73
tp147
sI146
(I53
I73
tp148
sI147
(I54
I73
tp149
sI148
(I54
I73
tp150
sI149
(I55
I73
tp151
sI150
(I55
I72
tp152
sI151
(I56
I72
tp153
sI152
(I57
I71
tp154
sI153
(I58
I70
tp155
sI154
(I59
I61
tp156
sI164
(I51
I82
tp157
sI165
(I39
I94
tp158
sI166
(I32
I101
tp159
sI167
(I26
I107
tp160
sI168
(I21
I112
tp161
sI169
(I17
I116
tp162
sI170
(I14
I119
tp163
sI171
(I11
I122
tp164
sI172
(I8
I125
tp165
sI173
(I6
I127
tp166
sI174
(I5
I128
tp167
sI175
(I3
I130
tp168
sI176
(I2
I131
tp169
sI177
(I1
I132
tp170
sI178
(I1
I132
tp171
sI179
(I1
I132
tp172
sI180
(I1
I132
tp173
sI181
(I1
I132
tp174
sI182
(I1
I132
tp175
sI183
(I1
I132
tp176
sI184
(I2
I131
tp177
sI185
(I3
I130
tp178
sI186
(I5
I128
tp179
sI187
(I6
I127
tp180
sI188
(I8
I125
tp181
sI189
(I11
I122
tp182
sI190
(I14
I119
tp183
sI191
(I17
I116
tp184
sI192
(I21
I112
tp185
sI193
(I26
I107
tp186
sI194
(I32
I101
tp187
sI195
(I39
I94
tp188
sI196
(I51
I82
tp189
s(dp190
I0
(I179
I181
tp191
sI1
(I177
I183
tp192
sI2
(I176
I184
tp193
sI3
(I175
I185
tp194
sI4
(I175
I185
tp195
sI5
(I174
I186
tp196
sI6
(I173
I187
tp197
sI7
(I173
I187
tp198
sI8
(I172
I188
tp199
sI9
(I172
I188
tp200
sI10
(I172
I188
tp201
sI11
(I171
I189
tp202
sI12
(I171
I189
tp203
sI13
(I171
I189
tp204
sI14
(I170
I190
tp205
sI15
(I170
I190
tp206
sI16
(I170
I190
tp207
sI17
(I169
I191
tp208
sI18
(I169
I191
tp209
sI19
(I169
I191
tp210
sI20
(I169
I191
tp211
sI21
(I168
I192
tp212
sI22
(I168
I192
tp213
sI23
(I168
I192
tp214
sI24
(I168
I192
tp215
sI25
(I85
I192
tp216
sI26
(I84
I193
tp217
sI27
(I83
I193
tp218
sI28
(I82
I193
tp219
sI29
(I80
I193
tp220
sI30
(I77
I193
tp221
sI31
(I73
I193
tp222
sI32
(I71
I194
tp223
sI33
(I69
I194
tp224
sI34
(I67
I194
tp225
sI35
(I64
I194
tp226
sI36
(I45
I194
tp227
sI37
(I44
I194
tp228
sI38
(I43
I194
tp229
sI39
(I2
I195
tp230
sI40
(I1
I195
tp231
sI41
(I1
I195
tp232
sI42
(I1
I195
tp233
sI43
(I1
I195
tp234
sI44
(I2
I195
tp235
sI45
(I2
I195
tp236
sI46
(I3
I195
tp237
sI47
(I3
I195
tp238
sI48
(I4
I195
tp239
sI49
(I5
I195
tp240
sI50
(I5
I195
tp241
sI51
(I6
I195
tp242
sI52
(I7
I195
tp243
sI53
(I8
I195
tp244
sI54
(I9
I195
tp245
sI55
(I8
I195
tp246
sI56
(I7
I195
tp247
sI57
(I7
I195
tp248
sI58
(I6
I195
tp249
sI59
(I6
I195
tp250
sI60
(I5
I195
tp251
sI61
(I5
I195
tp252
sI62
(I5
I195
tp253
sI63
(I5
I195
tp254
sI64
(I5
I195
tp255
sI65
(I5
I195
tp256
sI66
(I5
I195
tp257
sI67
(I5
I195
tp258
sI68
(I4
I195
tp259
sI69
(I3
I195
tp260
sI70
(I2
I195
tp261
sI71
(I1
I195
tp262
sI72
(I1
I195
tp263
sI73
(I1
I195
tp264
sI74
(I2
I195
tp265
sI75
(I10
I195
tp266
sI76
(I11
I195
tp267
sI77
(I12
I195
tp268
sI78
(I13
I195
tp269
sI79
(I15
I195
tp270
sI80
(I18
I195
tp271
sI81
(I22
I195
tp272
sI82
(I36
I195
tp273
sI83
(I37
I195
tp274
sI84
(I38
I195
tp275
sI85
(I68
I195
tp276
sI86
(I70
I195
tp277
sI87
(I72
I195
tp278
sI88
(I75
I195
tp279
sI89
(I77
I195
tp280
sI90
(I78
I195
tp281
sI91
(I79
I195
tp282
sI92
(I92
I195
tp283
sI93
(I94
I195
tp284
sI94
(I96
I195
tp285
sI95
(I98
I194
tp286
sI96
(I100
I194
tp287
sI97
(I101
I194
tp288
sI98
(I105
I194
tp289
sI99
(I108
I194
tp290
sI100
(I115
I194
tp291
sI101
(I166
I194
tp292
sI102
(I167
I193
tp293
sI103
(I167
I193
tp294
sI104
(I167
I193
tp295
sI105
(I167
I193
tp296
sI106
(I167
I193
tp297
sI107
(I167
I193
tp298
sI108
(I168
I192
tp299
sI109
(I168
I192
tp300
sI110
(I168
I192
tp301
sI111
(I168
I192
tp302
sI112
(I168
I192
tp303
sI113
(I169
I191
tp304
sI114
(I169
I191
tp305
sI115
(I169
I191
tp306
sI116
(I169
I191
tp307
sI117
(I170
I190
tp308
sI118
(I170
I190
tp309
sI119
(I170
I190
tp310
sI120
(I171
I189
tp311
sI121
(I171
I189
tp312
sI122
(I171
I189
tp313
sI123
(I172
I188
tp314
sI124
(I172
I188
tp315
sI125
(I172
I188
tp316
sI126
(I173
I187
tp317
sI127
(I173
I187
tp318
sI128
(I174
I186
tp319
sI129
(I175
I185
tp320
sI130
(I175
I185
tp321
sI131
(I176
I184
tp322
sI132
(I177
I183
tp323
sI133
(I179
I181
tp324
stp325
.