((dp1
I0
(I3
I8
tp2
sI1
(I2
I10
tp3
sI2
(I1
I10
tp4
sI3
(I1
I10
tp5
sI4
(I1
I10
tp6
sI5
(I1
I10
tp7
sI6
(I1
I10
tp8
sI7
(I1
I10
tp9
sI8
(I1
I10
tp10
sI9
(I1
I10
tp11
sI10
(I2
I10
tp12
s(dp13
I0
(I2
I9
tp14
sI1
(I2
I9
tp15
sI2
(I1
I9
tp16
sI3
(I1
I9
tp17
sI4
(I1
I9
tp18
sI5
(I1
I9
tp19
sI6
(I1
I9
tp20
sI7
(I1
I9
tp21
sI8
(I1
I9
tp22
sI9
(I1
I9
tp23
sI10
(I1
I9
tp24
sI11
(I2
I9
tp25
stp26
.