((dp1
I0
(I43
I43
tp2
sI1
(I11
I44
tp3
sI2
(I10
I45
tp4
sI3
(I10
I45
tp5
sI4
(I10
I45
tp6
sI5
(I10
I45
tp7
sI6
(I10
I45
tp8
sI7
(I11
I45
tp9
sI8
(I11
I45
tp10
sI9
(I11
I45
tp11
sI10
(I11
I46
tp12
sI11
(I11
I47
tp13
sI12
(I12
I48
tp14
sI13
(I12
I49
tp15
sI14
(I12
I49
tp16
sI15
(I12
I50
tp17
sI16
(I12
I50
tp18
sI17
(I13
I50
tp19
sI18
(I13
I51
tp20
sI19
(I13
I51
tp21
sI20
(I13
I51
tp22
sI21
(I14
I51
tp23
sI22
(I14
I52
tp24
sI23
(I15
I52
tp25
sI24
(I17
I52
tp26
sI25
(I16
I52
tp27
sI26
(I15
I52
tp28
sI27
(I13
I51
tp29
sI28
(I12
I51
tp30
sI29
(I11
I50
tp31
sI30
(I10
I50
tp32
sI31
(I10
I50
tp33
sI32
(I11
I51
tp34
sI33
(I12
I51
tp35
sI34
(I13
I52
tp36
sI35
(I15
I52
tp37
sI36
(I15
I53
tp38
sI37
(I17
I54
tp39
sI38
(I17
I55
tp40
sI39
(I14
I55
tp41
sI40
(I12
I55
tp42
sI41
(I11
I53
tp43
sI42
(I10
I52
tp44
sI43
(I9
I47
tp45
sI44
(I8
I48
tp46
sI45
(I7
I49
tp47
sI46
(I7
I50
tp48
sI47
(I7
I51
tp49
sI48
(I7
I51
tp50
sI49
(I7
I52
tp51
sI50
(I8
I52
tp52
sI51
(I8
I52
tp53
sI52
(I9
I52
tp54
sI53
(I8
I52
tp55
sI54
(I8
I52
tp56
sI55
(I7
I53
tp57
sI56
(I7
I53
tp58
sI57
(I7
I52
tp59
sI58
(I8
I52
tp60
sI59
(I8
I53
tp61
sI60
(I8
I53
tp62
sI61
(I7
I53
tp63
sI62
(I7
I54
tp64
sI63
(I7
I54
tp65
sI64
(I6
I54
tp66
sI65
(I6
I55
tp67
sI66
(I6
I55
tp68
sI67
(I5
I55
tp69
sI68
(I5
I56
tp70
sI69
(I4
I56
tp71
sI70
(I4
I57
tp72
sI71
(I3
I57
tp73
sI72
(I3
I58
tp74
sI73
(I2
I58
tp75
sI74
(I2
I58
tp76
sI75
(I2
I58
tp77
sI76
(I2
I58
tp78
sI77
(I1
I58
tp79
sI78
(I1
I58
tp80
sI79
(I1
I58
tp81
sI80
(I1
I57
tp82
sI81
(I1
I56
tp83
sI82
(I1
I56
tp84
sI83
(I1
I57
tp85
sI84
(I1
I58
tp86
sI85
(I2
I59
tp87
sI86
(I14
I59
tp88
sI87
(I13
I60
tp89
sI88
(I13
I61
tp90
sI89
(I12
I61
tp91
sI90
(I12
I62
tp92
sI91
(I12
I62
tp93
sI92
(I11
I63
tp94
sI93
(I11
I63
tp95
sI94
(I10
I64
tp96
sI95
(I10
I64
tp97
sI96
(I10
I65
tp98
sI97
(I9
I65
tp99
sI98
(I9
I66
tp100
sI99
(I9
I66
tp101
sI100
(I8
I67
tp102
sI101
(I8
I68
tp103
sI102
(I8
I68
tp104
sI103
(I8
I68
tp105
sI104
(I7
I68
tp106
sI105
(I7
I69
tp107
sI106
(I7
I69
tp108
sI107
(I6
I69
tp109
sI108
(I6
I70
tp110
sI109
(I6
I70
tp111
sI110
(I6
I70
tp112
sI111
(I6
I70
tp113
sI112
(I6
I70
tp114
sI113
(I5
I70
tp115
sI114
(I5
I70
tp116
sI115
(I5
I70
tp117
sI116
(I6
I70
tp118
sI117
(I7
I70
tp119
sI118
(I9
I70
tp120
sI119
(I10
I70
tp121
sI120
(I12
I66
tp122
sI121
(I13
I60
tp123
sI122
(I15
I57
tp124
sI123
(I20
I47
tp125
sI124
(I24
I44
tp126
sI125
(I24
I44
tp127
sI126
(I24
I44
tp128
sI127
(I24
I44
tp129
sI128
(I24
I44
tp130
sI129
(I24
I44
tp131
sI130
(I24
I44
tp132
sI131
(I24
I44
tp133
sI132
(I24
I44
tp134
sI133
(I24
I44
tp135
sI134
(I24
I44
tp136
sI135
(I23
I44
tp137
sI136
(I23
I44
tp138
sI137
(I23
I44
tp139
sI138
(I23
I44
tp140
sI139
(I23
I44
tp141
sI140
(I23
I44
tp142
sI141
(I23
I44
tp143
sI142
(I23
I44
tp144
sI143
(I23
I44
tp145
sI144
(I24
I44
tp146
sI145
(I24
I44
tp147
sI146
(I24
I44
tp148
sI147
(I25
I44
tp149
sI148
(I25
I44
tp150
sI149
(I26
I44
tp151
sI150
(I26
I43
tp152
sI151
(I27
I43
tp153
sI152
(I28
I42
tp154
sI153
(I29
I41
tp155
sI154
(I30
I32
tp156
s(dp157
I0
(I80
I83
tp158
sI1
(I77
I84
tp159
sI2
(I73
I85
tp160
sI3
(I71
I85
tp161
sI4
(I69
I85
tp162
sI5
(I67
I115
tp163
sI6
(I64
I116
tp164
sI7
(I45
I117
tp165
sI8
(I44
I117
tp166
sI9
(I43
I118
tp167
sI10
(I2
I119
tp168
sI11
(I1
I119
tp169
sI12
(I1
I120
tp170
sI13
(I1
I121
tp171
sI14
(I1
I121
tp172
sI15
(I2
I122
tp173
sI16
(I2
I122
tp174
sI17
(I3
I122
tp175
sI18
(I3
I122
tp176
sI19
(I4
I122
tp177
sI20
(I5
I123
tp178
sI21
(I5
I123
tp179
sI22
(I6
I123
tp180
sI23
(I7
I143
tp181
sI24
(I8
I146
tp182
sI25
(I9
I148
tp183
sI26
(I8
I150
tp184
sI27
(I7
I151
tp185
sI28
(I7
I152
tp186
sI29
(I6
I153
tp187
sI30
(I6
I153
tp188
sI31
(I5
I153
tp189
sI32
(I5
I153
tp190
sI33
(I5
I153
tp191
sI34
(I5
I152
tp192
sI35
(I5
I149
tp193
sI36
(I5
I150
tp194
sI37
(I5
I151
tp195
sI38
(I5
I152
tp196
sI39
(I4
I153
tp197
sI40
(I3
I153
tp198
sI41
(I2
I153
tp199
sI42
(I1
I152
tp200
sI43
(I1
I151
tp201
sI44
(I1
I149
tp202
sI45
(I2
I123
tp203
sI46
(I10
I123
tp204
sI47
(I11
I123
tp205
sI48
(I12
I122
tp206
sI49
(I13
I122
tp207
sI50
(I15
I122
tp208
sI51
(I18
I122
tp209
sI52
(I22
I122
tp210
sI53
(I36
I122
tp211
sI54
(I37
I122
tp212
sI55
(I38
I122
tp213
sI56
(I68
I122
tp214
sI57
(I70
I122
tp215
sI58
(I72
I121
tp216
sI59
(I85
I121
tp217
sI60
(I87
I121
tp218
sI61
(I88
I120
tp219
sI62
(I90
I120
tp220
sI63
(I92
I120
tp221
sI64
(I94
I120
tp222
sI65
(I96
I120
tp223
sI66
(I98
I120
tp224
sI67
(I100
I119
tp225
sI68
(I101
I119
tp226
sI69
(I105
I119
tp227
sI70
(I108
I119
tp228
sI71
(I115
I118
tp229
stp230
.