((dp1
I0
(I72
I72
tp2
sI1
(I40
I73
tp3
sI2
(I39
I74
tp4
sI3
(I39
I74
tp5
sI4
(I39
I74
tp6
sI5
(I39
I74
tp7
sI6
(I39
I74
tp8
sI7
(I40
I74
tp9
sI8
(I40
I74
tp10
sI9
(I40
I74
tp11
sI10
(I40
I75
tp12
sI11
(I40
I76
tp13
sI12
(I41
I77
tp14
sI13
(I41
I78
tp15
sI14
(I41
I78
tp16
sI15
(I41
I79
tp17
sI16
(I41
I79
tp18
sI17
(I42
I79
tp19
sI18
(I42
I80
tp20
sI19
(I42
I80
tp21
sI20
(I42
I80
tp22
sI21
(I43
I80
tp23
sI22
(I43
I81
tp24
sI23
(I44
I81
tp25
sI24
(I46
I81
tp26
sI25
(I45
I81
tp27
sI26
(I44
I81
tp28
sI27
(I42
I80
tp29
sI28
(I41
I80
tp30
sI29
(I40
I79
tp31
sI30
(I39
I79
tp32
sI31
(I39
I79
tp33
sI32
(I40
I80
tp34
sI33
(I41
I80
tp35
sI34
(I42
I81
tp36
sI35
(I44
I81
tp37
sI36
(I44
I82
tp38
sI37
(I46
I83
tp39
sI38
(I46
I84
tp40
sI39
(I43
I84
tp41
sI40
(I41
I84
tp42
sI41
(I40
I82
tp43
sI42
(I39
I81
tp44
sI43
(I38
I76
tp45
sI44
(I37
I77
tp46
sI45
(I36
I78
tp47
sI46
(I36
I79
tp48
sI47
(I36
I80
tp49
sI48
(I36
I80
tp50
sI49
(I36
I81
tp51
sI50
(I37
I81
tp52
sI51
(I37
I81
tp53
sI52
(I38
I81
tp54
sI53
(I37
I81
tp55
sI54
(I37
I81
tp56
sI55
(I36
I82
tp57
sI56
(I36
I82
tp58
sI57
(I36
I81
tp59
sI58
(I37
I81
tp60
sI59
(I37
I82
tp61
sI60
(I37
I82
tp62
sI61
(I36
I82
tp63
sI62
(I36
I83
tp64
sI63
(I36
I83
tp65
sI64
(I35
I83
tp66
sI65
(I35
I84
tp67
sI66
(I35
I84
tp68
sI67
(I34
I84
tp69
sI68
(I34
I85
tp70
sI69
(I33
I85
tp71
sI70
(I33
I86
tp72
sI71
(I32
I86
tp73
sI72
(I32
I87
tp74
sI73
(I31
I87
tp75
sI74
(I31
I87
tp76
sI75
(I31
I88
tp77
sI76
(I31
I88
tp78
sI77
(I30
I89
tp79
sI78
(I30
I90
tp80
sI79
(I30
I91
tp81
sI80
(I29
I91
tp82
sI81
(I29
I90
tp83
sI82
(I28
I85
tp84
sI83
(I27
I86
tp85
sI84
(I26
I87
tp86
sI85
(I25
I88
tp87
sI86
(I25
I88
tp88
sI87
(I25
I89
tp89
sI88
(I25
I90
tp90
sI89
(I26
I90
tp91
sI90
(I41
I91
tp92
sI91
(I41
I91
tp93
sI92
(I40
I92
tp94
sI93
(I40
I92
tp95
sI94
(I39
I93
tp96
sI95
(I39
I93
tp97
sI96
(I39
I94
tp98
sI97
(I38
I94
tp99
sI98
(I38
I95
tp100
sI99
(I38
I95
tp101
sI100
(I37
I96
tp102
sI101
(I37
I97
tp103
sI102
(I37
I97
tp104
sI103
(I37
I97
tp105
sI104
(I36
I97
tp106
sI105
(I36
I98
tp107
sI106
(I36
I98
tp108
sI107
(I35
I98
tp109
sI108
(I35
I99
tp110
sI109
(I35
I99
tp111
sI110
(I35
I99
tp112
sI111
(I35
I99
tp113
sI112
(I35
I99
tp114
sI113
(I34
I99
tp115
sI114
(I34
I99
tp116
sI115
(I34
I100
tp117
sI116
(I35
I100
tp118
sI117
(I36
I100
tp119
sI118
(I38
I100
tp120
sI119
(I39
I99
tp121
sI120
(I41
I95
tp122
sI121
(I42
I89
tp123
sI122
(I44
I86
tp124
sI123
(I49
I76
tp125
sI124
(I53
I73
tp126
sI125
(I53
I73
tp127
sI126
(I53
I73
tp128
sI127
(I53
I73
tp129
sI128
(I53
I73
tp130
sI129
(I53
I73
tp131
sI130
(I53
I73
tp132
sI131
(I53
I73
tp133
sI132
(I53
I73
tp134
sI133
(I53
I73
tp135
sI134
(I53
I73
tp136
sI135
(I52
I73
tp137
sI136
(I52
I73
tp138
sI137
(I52
I73
tp139
sI138
(I52
I73
tp140
sI139
(I52
I73
tp141
sI140
(I52
I73
tp142
sI141
(I52
I73
tp143
sI142
(I52
I73
tp144
sI143
(I52
I73
tp145
sI144
(I53
I73
tp146
sI145
(I53
I73
tp147
sI146
(I53
I73
tp148
sI147
(I54
I73
tp149
sI148
(I54
I73
tp150
sI149
(I51
I82
tp151
sI150
(I39
I94
tp152
sI151
(I32
I101
tp153
sI152
(I26
I107
tp154
sI153
(I21
I112
tp155
sI154
(I17
I116
tp156
sI155
(I14
I119
tp157
sI156
(I11
I122
tp158
sI157
(I8
I125
tp159
sI158
(I6
I127
tp160
sI159
(I5
I128
tp161
sI160
(I3
I130
tp162
sI161
(I2
I131
tp163
sI162
(I1
I132
tp164
sI163
(I1
I132
tp165
sI164
(I1
I132
tp166
sI165
(I1
I132
tp167
sI166
(I1
I132
tp168
sI167
(I1
I132
tp169
sI168
(I1
I132
tp170
sI169
(I2
I131
tp171
sI170
(I3
I130
tp172
sI171
(I5
I128
tp173
sI172
(I6
I127
tp174
sI173
(I8
I125
tp175
sI174
(I11
I122
tp176
sI175
(I14
I119
tp177
sI176
(I17
I116
tp178
sI177
(I21
I112
tp179
sI178
(I26
I107
tp180
sI179
(I32
I101
tp181
sI180
(I39
I94
tp182
sI181
(I51
I82
tp183
s(dp184
I0
(I164
I166
tp185
sI1
(I162
I168
tp186
sI2
(I161
I169
tp187
sI3
(I160
I170
tp188
sI4
(I160
I170
tp189
sI5
(I159
I171
tp190
sI6
(I158
I172
tp191
sI7
(I158
I172
tp192
sI8
(I157
I173
tp193
sI9
(I157
I173
tp194
sI10
(I157
I173
tp195
sI11
(I156
I174
tp196
sI12
(I156
I174
tp197
sI13
(I156
I174
tp198
sI14
(I155
I175
tp199
sI15
(I155
I175
tp200
sI16
(I155
I175
tp201
sI17
(I154
I176
tp202
sI18
(I154
I176
tp203
sI19
(I154
I176
tp204
sI20
(I154
I176
tp205
sI21
(I153
I177
tp206
sI22
(I153
I177
tp207
sI23
(I153
I177
tp208
sI24
(I153
I177
tp209
sI25
(I85
I177
tp210
sI26
(I84
I178
tp211
sI27
(I83
I178
tp212
sI28
(I82
I178
tp213
sI29
(I80
I178
tp214
sI30
(I77
I178
tp215
sI31
(I73
I178
tp216
sI32
(I71
I179
tp217
sI33
(I69
I179
tp218
sI34
(I67
I179
tp219
sI35
(I64
I179
tp220
sI36
(I45
I179
tp221
sI37
(I44
I179
tp222
sI38
(I43
I179
tp223
sI39
(I2
I180
tp224
sI40
(I1
I180
tp225
sI41
(I1
I180
tp226
sI42
(I1
I180
tp227
sI43
(I1
I180
tp228
sI44
(I2
I180
tp229
sI45
(I2
I180
tp230
sI46
(I3
I180
tp231
sI47
(I3
I180
tp232
sI48
(I4
I180
tp233
sI49
(I5
I180
tp234
sI50
(I5
I180
tp235
sI51
(I6
I180
tp236
sI52
(I7
I180
tp237
sI53
(I8
I180
tp238
sI54
(I9
I180
tp239
sI55
(I8
I180
tp240
sI56
(I7
I180
tp241
sI57
(I7
I180
tp242
sI58
(I6
I180
tp243
sI59
(I6
I180
tp244
sI60
(I5
I180
tp245
sI61
(I5
I180
tp246
sI62
(I5
I180
tp247
sI63
(I5
I180
tp248
sI64
(I5
I180
tp249
sI65
(I5
I180
tp250
sI66
(I5
I180
tp251
sI67
(I5
I180
tp252
sI68
(I4
I180
tp253
sI69
(I3
I180
tp254
sI70
(I2
I180
tp255
sI71
(I1
I180
tp256
sI72
(I1
I180
tp257
sI73
(I1
I180
tp258
sI74
(I2
I180
tp259
sI75
(I10
I180
tp260
sI76
(I11
I180
tp261
sI77
(I12
I180
tp262
sI78
(I13
I180
tp263
sI79
(I15
I180
tp264
sI80
(I18
I180
tp265
sI81
(I22
I180
tp266
sI82
(I36
I180
tp267
sI83
(I37
I180
tp268
sI84
(I38
I180
tp269
sI85
(I68
I180
tp270
sI86
(I70
I180
tp271
sI87
(I72
I180
tp272
sI88
(I75
I180
tp273
sI89
(I77
I180
tp274
sI90
(I78
I180
tp275
sI91
(I79
I180
tp276
sI92
(I92
I180
tp277
sI93
(I94
I180
tp278
sI94
(I96
I180
tp279
sI95
(I98
I179
tp280
sI96
(I100
I179
tp281
sI97
(I101
I179
tp282
sI98
(I105
I179
tp283
sI99
(I108
I179
tp284
sI100
(I115
I179
tp285
sI101
(I151
I179
tp286
sI102
(I152
I178
tp287
sI103
(I152
I178
tp288
sI104
(I152
I178
tp289
sI105
(I152
I178
tp290
sI106
(I152
I178
tp291
sI107
(I152
I178
tp292
sI108
(I153
I177
tp293
sI109
(I153
I177
tp294
sI110
(I153
I177
tp295
sI111
(I153
I177
tp296
sI112
(I153
I177
tp297
sI113
(I154
I176
tp298
sI114
(I154
I176
tp299
sI115
(I154
I176
tp300
sI116
(I154
I176
tp301
sI117
(I155
I175
tp302
sI118
(I155
I175
tp303
sI119
(I155
I175
tp304
sI120
(I156
I174
tp305
sI121
(I156
I174
tp306
sI122
(I156
I174
tp307
sI123
(I157
I173
tp308
sI124
(I157
I173
tp309
sI125
(I157
I173
tp310
sI126
(I158
I172
tp311
sI127
(I158
I172
tp312
sI128
(I159
I171
tp313
sI129
(I160
I170
tp314
sI130
(I160
I170
tp315
sI131
(I161
I169
tp316
sI132
(I162
I168
tp317
sI133
(I164
I166
tp318
stp319
.