((dp1
I1
(I1
I19
tp2
sI2
(I1
I24
tp3
sI3
(I1
I27
tp4
sI4
(I1
I30
tp5
sI5
(I1
I32
tp6
sI6
(I1
I34
tp7
sI7
(I1
I36
tp8
sI8
(I1
I38
tp9
sI9
(I1
I39
tp10
sI10
(I1
I40
tp11
sI11
(I1
I41
tp12
sI12
(I1
I42
tp13
sI13
(I1
I43
tp14
sI14
(I1
I44
tp15
sI15
(I1
I44
tp16
sI16
(I1
I45
tp17
sI17
(I1
I45
tp18
sI18
(I1
I46
tp19
sI19
(I1
I46
tp20
sI20
(I1
I46
tp21
sI21
(I1
I46
tp22
sI22
(I1
I46
tp23
sI23
(I1
I46
tp24
sI24
(I1
I46
tp25
sI25
(I1
I46
tp26
sI26
(I1
I46
tp27
sI27
(I1
I46
tp28
sI28
(I1
I46
tp29
sI29
(I1
I46
tp30
sI30
(I1
I46
tp31
sI31
(I1
I46
tp32
sI32
(I1
I46
tp33
sI33
(I1
I45
tp34
sI34
(I1
I45
tp35
sI35
(I1
I44
tp36
sI36
(I1
I44
tp37
sI37
(I1
I43
tp38
sI38
(I1
I42
tp39
sI39
(I1
I41
tp40
sI40
(I1
I40
tp41
sI41
(I1
I39
tp42
sI42
(I1
I38
tp43
sI43
(I1
I36
tp44
sI44
(I1
I34
tp45
sI45
(I1
I32
tp46
sI46
(I1
I30
tp47
sI47
(I1
I27
tp48
sI48
(I1
I24
tp49
sI49
(I1
I19
tp50
s(dp51
I0
(I1
I49
tp52
sI1
(I1
I49
tp53
sI2
(I1
I49
tp54
sI3
(I1
I49
tp55
sI4
(I1
I49
tp56
sI5
(I1
I49
tp57
sI6
(I1
I49
tp58
sI7
(I1
I49
tp59
sI8
(I1
I49
tp60
sI9
(I1
I49
tp61
sI10
(I1
I49
tp62
sI11
(I1
I49
tp63
sI12
(I1
I49
tp64
sI13
(I1
I49
tp65
sI14
(I1
I49
tp66
sI15
(I1
I49
tp67
sI16
(I1
I49
tp68
sI17
(I1
I49
tp69
sI18
(I1
I49
tp70
sI19
(I1
I49
tp71
sI20
(I2
I48
tp72
sI21
(I2
I48
tp73
sI22
(I2
I48
tp74
sI23
(I2
I48
tp75
sI24
(I2
I48
tp76
sI25
(I3
I47
tp77
sI26
(I3
I47
tp78
sI27
(I3
I47
tp79
sI28
(I4
I46
tp80
sI29
(I4
I46
tp81
sI30
(I4
I46
tp82
sI31
(I5
I45
tp83
sI32
(I5
I45
tp84
sI33
(I6
I44
tp85
sI34
(I6
I44
tp86
sI35
(I7
I43
tp87
sI36
(I7
I43
tp88
sI37
(I8
I42
tp89
sI38
(I8
I42
tp90
sI39
(I9
I41
tp91
sI40
(I10
I40
tp92
sI41
(I11
I39
tp93
sI42
(I12
I38
tp94
sI43
(I13
I37
tp95
sI44
(I14
I36
tp96
sI45
(I16
I34
tp97
sI46
(I18
I32
tp98
sI47
(I21
I29
tp99
stp100
.