((dp1
I0
(I72
I72
tp2
sI1
(I40
I73
tp3
sI2
(I39
I74
tp4
sI3
(I39
I74
tp5
sI4
(I39
I74
tp6
sI5
(I39
I74
tp7
sI6
(I39
I74
tp8
sI7
(I40
I74
tp9
sI8
(I40
I74
tp10
sI9
(I40
I74
tp11
sI10
(I40
I75
tp12
sI11
(I40
I76
tp13
sI12
(I41
I77
tp14
sI13
(I41
I78
tp15
sI14
(I41
I78
tp16
sI15
(I41
I79
tp17
sI16
(I41
I79
tp18
sI17
(I42
I79
tp19
sI18
(I42
I80
tp20
sI19
(I42
I80
tp21
sI20
(I42
I80
tp22
sI21
(I43
I80
tp23
sI22
(I43
I81
tp24
sI23
(I44
I81
tp25
sI24
(I46
I81
tp26
sI25
(I45
I81
tp27
sI26
(I44
I81
tp28
sI27
(I42
I80
tp29
sI28
(I41
I80
tp30
sI29
(I40
I79
tp31
sI30
(I39
I79
tp32
sI31
(I39
I79
tp33
sI32
(I40
I80
tp34
sI33
(I41
I80
tp35
sI34
(I42
I81
tp36
sI35
(I44
I81
tp37
sI36
(I44
I82
tp38
sI37
(I46
I83
tp39
sI38
(I46
I84
tp40
sI39
(I43
I84
tp41
sI40
(I41
I84
tp42
sI41
(I40
I82
tp43
sI42
(I39
I81
tp44
sI43
(I38
I76
tp45
sI44
(I37
I77
tp46
sI45
(I36
I78
tp47
sI46
(I36
I79
tp48
sI47
(I36
I80
tp49
sI48
(I36
I80
tp50
sI49
(I36
I81
tp51
sI50
(I37
I81
tp52
sI51
(I37
I81
tp53
sI52
(I38
I81
tp54
sI53
(I37
I81
tp55
sI54
(I37
I81
tp56
sI55
(I36
I82
tp57
sI56
(I36
I82
tp58
sI57
(I36
I81
tp59
sI58
(I37
I81
tp60
sI59
(I37
I82
tp61
sI60
(I37
I82
tp62
sI61
(I36
I82
tp63
sI62
(I36
I83
tp64
sI63
(I36
I83
tp65
sI64
(I35
I94
tp66
sI65
(I32
I101
tp67
sI66
(I26
I107
tp68
sI67
(I21
I112
tp69
sI68
(I17
I116
tp70
sI69
(I14
I119
tp71
sI70
(I11
I122
tp72
sI71
(I8
I125
tp73
sI72
(I6
I127
tp74
sI73
(I5
I128
tp75
sI74
(I3
I130
tp76
sI75
(I2
I131
tp77
sI76
(I1
I132
tp78
sI77
(I1
I132
tp79
sI78
(I1
I132
tp80
sI79
(I1
I132
tp81
sI80
(I1
I132
tp82
sI81
(I1
I132
tp83
sI82
(I1
I132
tp84
sI83
(I2
I131
tp85
sI84
(I3
I130
tp86
sI85
(I5
I128
tp87
sI86
(I6
I127
tp88
sI87
(I8
I125
tp89
sI88
(I11
I122
tp90
sI89
(I14
I119
tp91
sI90
(I17
I116
tp92
sI91
(I21
I112
tp93
sI92
(I26
I107
tp94
sI93
(I32
I101
tp95
sI94
(I39
I94
tp96
sI95
(I51
I82
tp97
s(dp98
I0
(I78
I80
tp99
sI1
(I76
I82
tp100
sI2
(I75
I83
tp101
sI3
(I74
I84
tp102
sI4
(I74
I84
tp103
sI5
(I73
I85
tp104
sI6
(I72
I86
tp105
sI7
(I72
I86
tp106
sI8
(I71
I87
tp107
sI9
(I71
I87
tp108
sI10
(I71
I87
tp109
sI11
(I70
I88
tp110
sI12
(I70
I88
tp111
sI13
(I70
I88
tp112
sI14
(I69
I89
tp113
sI15
(I69
I89
tp114
sI16
(I69
I89
tp115
sI17
(I68
I90
tp116
sI18
(I68
I90
tp117
sI19
(I68
I90
tp118
sI20
(I68
I90
tp119
sI21
(I67
I91
tp120
sI22
(I67
I91
tp121
sI23
(I67
I91
tp122
sI24
(I67
I91
tp123
sI25
(I67
I91
tp124
sI26
(I66
I92
tp125
sI27
(I66
I92
tp126
sI28
(I66
I92
tp127
sI29
(I66
I92
tp128
sI30
(I66
I92
tp129
sI31
(I66
I92
tp130
sI32
(I65
I93
tp131
sI33
(I65
I93
tp132
sI34
(I65
I93
tp133
sI35
(I64
I93
tp134
sI36
(I45
I93
tp135
sI37
(I44
I93
tp136
sI38
(I43
I93
tp137
sI39
(I2
I94
tp138
sI40
(I1
I94
tp139
sI41
(I1
I94
tp140
sI42
(I1
I94
tp141
sI43
(I1
I94
tp142
sI44
(I2
I94
tp143
sI45
(I2
I94
tp144
sI46
(I3
I94
tp145
sI47
(I3
I94
tp146
sI48
(I4
I94
tp147
sI49
(I5
I94
tp148
sI50
(I5
I94
tp149
sI51
(I6
I94
tp150
sI52
(I7
I94
tp151
sI53
(I8
I94
tp152
sI54
(I9
I94
tp153
sI55
(I8
I94
tp154
sI56
(I7
I94
tp155
sI57
(I7
I94
tp156
sI58
(I6
I94
tp157
sI59
(I6
I94
tp158
sI60
(I5
I94
tp159
sI61
(I5
I94
tp160
sI62
(I5
I94
tp161
sI63
(I5
I94
tp162
sI64
(I5
I94
tp163
sI65
(I5
I94
tp164
sI66
(I5
I94
tp165
sI67
(I5
I94
tp166
sI68
(I4
I94
tp167
sI69
(I3
I94
tp168
sI70
(I2
I94
tp169
sI71
(I1
I94
tp170
sI72
(I1
I94
tp171
sI73
(I1
I94
tp172
sI74
(I2
I94
tp173
sI75
(I10
I94
tp174
sI76
(I11
I94
tp175
sI77
(I12
I94
tp176
sI78
(I13
I94
tp177
sI79
(I15
I94
tp178
sI80
(I18
I94
tp179
sI81
(I22
I94
tp180
sI82
(I36
I94
tp181
sI83
(I37
I94
tp182
sI84
(I38
I94
tp183
sI85
(I64
I94
tp184
sI86
(I64
I94
tp185
sI87
(I64
I94
tp186
sI88
(I64
I94
tp187
sI89
(I64
I94
tp188
sI90
(I64
I94
tp189
sI91
(I64
I94
tp190
sI92
(I64
I94
tp191
sI93
(I64
I94
tp192
sI94
(I64
I94
tp193
sI95
(I65
I93
tp194
sI96
(I65
I93
tp195
sI97
(I65
I93
tp196
sI98
(I65
I93
tp197
sI99
(I65
I93
tp198
sI100
(I65
I93
tp199
sI101
(I65
I93
tp200
sI102
(I66
I92
tp201
sI103
(I66
I92
tp202
sI104
(I66
I92
tp203
sI105
(I66
I92
tp204
sI106
(I66
I92
tp205
sI107
(I66
I92
tp206
sI108
(I67
I91
tp207
sI109
(I67
I91
tp208
sI110
(I67
I91
tp209
sI111
(I67
I91
tp210
sI112
(I67
I91
tp211
sI113
(I68
I90
tp212
sI114
(I68
I90
tp213
sI115
(I68
I90
tp214
sI116
(I68
I90
tp215
sI117
(I69
I89
tp216
sI118
(I69
I89
tp217
sI119
(I69
I89
tp218
sI120
(I70
I88
tp219
sI121
(I70
I88
tp220
sI122
(I70
I88
tp221
sI123
(I71
I87
tp222
sI124
(I71
I87
tp223
sI125
(I71
I87
tp224
sI126
(I72
I86
tp225
sI127
(I72
I86
tp226
sI128
(I73
I85
tp227
sI129
(I74
I84
tp228
sI130
(I74
I84
tp229
sI131
(I75
I83
tp230
sI132
(I76
I82
tp231
sI133
(I78
I80
tp232
stp233
.