((dp1
I0
(I36
I36
tp2
sI1
(I35
I38
tp3
sI2
(I34
I39
tp4
sI3
(I34
I40
tp5
sI4
(I34
I41
tp6
sI5
(I34
I42
tp7
sI6
(I34
I43
tp8
sI7
(I34
I43
tp9
sI8
(I34
I51
tp10
sI9
(I34
I54
tp11
sI10
(I34
I56
tp12
sI11
(I34
I57
tp13
sI12
(I34
I58
tp14
sI13
(I33
I59
tp15
sI14
(I24
I60
tp16
sI15
(I24
I61
tp17
sI16
(I23
I62
tp18
sI17
(I23
I64
tp19
sI18
(I23
I67
tp20
sI19
(I24
I68
tp21
sI20
(I25
I68
tp22
sI21
(I26
I68
tp23
sI22
(I27
I67
tp24
sI23
(I26
I67
tp25
sI24
(I25
I66
tp26
sI25
(I24
I65
tp27
sI26
(I24
I64
tp28
sI27
(I25
I64
tp29
sI28
(I26
I64
tp30
sI29
(I26
I63
tp31
sI30
(I27
I62
tp32
sI31
(I27
I62
tp33
sI32
(I31
I61
tp34
sI33
(I31
I62
tp35
sI34
(I36
I62
tp36
sI35
(I35
I63
tp37
sI36
(I35
I64
tp38
sI37
(I35
I64
tp39
sI38
(I34
I64
tp40
sI39
(I19
I64
tp41
sI40
(I16
I64
tp42
sI41
(I13
I64
tp43
sI42
(I11
I61
tp44
sI43
(I10
I63
tp45
sI44
(I9
I65
tp46
sI45
(I9
I69
tp47
sI46
(I9
I70
tp48
sI47
(I9
I70
tp49
sI48
(I9
I72
tp50
sI49
(I9
I72
tp51
sI50
(I9
I72
tp52
sI51
(I9
I72
tp53
sI52
(I8
I72
tp54
sI53
(I7
I72
tp55
sI54
(I6
I72
tp56
sI55
(I6
I72
tp57
sI56
(I7
I72
tp58
sI57
(I7
I66
tp59
sI58
(I6
I63
tp60
sI59
(I5
I59
tp61
sI60
(I5
I48
tp62
sI61
(I4
I47
tp63
sI62
(I4
I47
tp64
sI63
(I3
I47
tp65
sI64
(I3
I46
tp66
sI65
(I2
I45
tp67
sI66
(I2
I45
tp68
sI67
(I1
I45
tp69
sI68
(I1
I45
tp70
sI69
(I1
I45
tp71
sI70
(I1
I46
tp72
sI71
(I1
I47
tp73
sI72
(I1
I48
tp74
sI73
(I1
I49
tp75
sI74
(I1
I49
tp76
sI75
(I1
I50
tp77
sI76
(I20
I51
tp78
sI77
(I19
I52
tp79
sI78
(I18
I53
tp80
sI79
(I18
I54
tp81
sI80
(I17
I54
tp82
sI81
(I16
I55
tp83
sI82
(I16
I56
tp84
sI83
(I16
I57
tp85
sI84
(I15
I58
tp86
sI85
(I15
I58
tp87
sI86
(I14
I59
tp88
sI87
(I14
I60
tp89
sI88
(I14
I60
tp90
sI89
(I13
I61
tp91
sI90
(I13
I61
tp92
sI91
(I13
I62
tp93
sI92
(I13
I62
tp94
sI93
(I12
I63
tp95
sI94
(I12
I63
tp96
sI95
(I11
I64
tp97
sI96
(I11
I64
tp98
sI97
(I10
I65
tp99
sI98
(I10
I65
tp100
sI99
(I10
I66
tp101
sI100
(I10
I67
tp102
sI101
(I9
I67
tp103
sI102
(I9
I67
tp104
sI103
(I9
I67
tp105
sI104
(I9
I68
tp106
sI105
(I9
I68
tp107
sI106
(I8
I68
tp108
sI107
(I8
I69
tp109
sI108
(I8
I69
tp110
sI109
(I8
I69
tp111
sI110
(I8
I69
tp112
sI111
(I8
I69
tp113
sI112
(I8
I69
tp114
sI113
(I8
I69
tp115
sI114
(I8
I70
tp116
sI115
(I8
I70
tp117
sI116
(I8
I70
tp118
sI117
(I10
I70
tp119
sI118
(I11
I69
tp120
sI119
(I13
I67
tp121
sI120
(I14
I61
tp122
sI121
(I16
I58
tp123
sI122
(I21
I48
tp124
sI123
(I25
I45
tp125
sI124
(I25
I45
tp126
sI125
(I25
I45
tp127
sI126
(I25
I45
tp128
sI127
(I25
I45
tp129
sI128
(I25
I45
tp130
sI129
(I25
I45
tp131
sI130
(I25
I45
tp132
sI131
(I25
I45
tp133
sI132
(I25
I45
tp134
sI133
(I25
I45
tp135
sI134
(I25
I45
tp136
sI135
(I25
I45
tp137
sI136
(I25
I45
tp138
sI137
(I25
I45
tp139
sI138
(I25
I45
tp140
sI139
(I25
I45
tp141
sI140
(I25
I45
tp142
sI141
(I25
I45
tp143
sI142
(I25
I45
tp144
sI143
(I25
I45
tp145
sI144
(I25
I45
tp146
sI145
(I25
I45
tp147
sI146
(I25
I45
tp148
sI147
(I25
I45
tp149
sI148
(I25
I45
tp150
sI149
(I25
I45
tp151
sI150
(I26
I44
tp152
sI151
(I27
I43
tp153
sI152
(I28
I42
tp154
s(dp155
I0
(I71
I73
tp156
sI1
(I67
I75
tp157
sI2
(I65
I75
tp158
sI3
(I63
I75
tp159
sI4
(I61
I75
tp160
sI5
(I59
I74
tp161
sI6
(I54
I73
tp162
sI7
(I53
I72
tp163
sI8
(I52
I116
tp164
sI9
(I44
I116
tp165
sI10
(I43
I117
tp166
sI11
(I42
I118
tp167
sI12
(I42
I118
tp168
sI13
(I41
I119
tp169
sI14
(I41
I120
tp170
sI15
(I41
I120
tp171
sI16
(I40
I121
tp172
sI17
(I40
I121
tp173
sI18
(I40
I121
tp174
sI19
(I39
I121
tp175
sI20
(I39
I121
tp176
sI21
(I39
I122
tp177
sI22
(I39
I122
tp178
sI23
(I16
I122
tp179
sI24
(I14
I122
tp180
sI25
(I14
I149
tp181
sI26
(I14
I150
tp182
sI27
(I14
I151
tp183
sI28
(I14
I151
tp184
sI29
(I14
I151
tp185
sI30
(I14
I151
tp186
sI31
(I14
I151
tp187
sI32
(I15
I151
tp188
sI33
(I13
I150
tp189
sI34
(I2
I149
tp190
sI35
(I1
I122
tp191
sI36
(I1
I149
tp192
sI37
(I1
I150
tp193
sI38
(I1
I151
tp194
sI39
(I2
I151
tp195
sI40
(I3
I151
tp196
sI41
(I4
I151
tp197
sI42
(I5
I151
tp198
sI43
(I6
I151
tp199
sI44
(I8
I150
tp200
sI45
(I8
I149
tp201
sI46
(I8
I122
tp202
sI47
(I8
I122
tp203
sI48
(I8
I122
tp204
sI49
(I8
I121
tp205
sI50
(I8
I121
tp206
sI51
(I8
I121
tp207
sI52
(I9
I121
tp208
sI53
(I9
I121
tp209
sI54
(I9
I121
tp210
sI55
(I10
I121
tp211
sI56
(I10
I121
tp212
sI57
(I11
I121
tp213
sI58
(I12
I121
tp214
sI59
(I13
I120
tp215
sI60
(I14
I120
tp216
sI61
(I15
I120
tp217
sI62
(I16
I119
tp218
sI63
(I17
I119
tp219
sI64
(I17
I119
tp220
sI65
(I18
I119
tp221
sI66
(I18
I119
tp222
sI67
(I18
I119
tp223
sI68
(I19
I118
tp224
sI69
(I45
I118
tp225
sI70
(I46
I117
tp226
sI71
(I48
I56
tp227
sI72
(I48
I56
tp228
sI73
(I48
I56
tp229
stp230
.