((dp1
I0
(I72
I72
tp2
sI1
(I40
I73
tp3
sI2
(I39
I74
tp4
sI3
(I39
I74
tp5
sI4
(I39
I74
tp6
sI5
(I39
I74
tp7
sI6
(I39
I74
tp8
sI7
(I40
I74
tp9
sI8
(I40
I74
tp10
sI9
(I40
I74
tp11
sI10
(I40
I75
tp12
sI11
(I40
I76
tp13
sI12
(I41
I77
tp14
sI13
(I41
I78
tp15
sI14
(I41
I78
tp16
sI15
(I41
I79
tp17
sI16
(I41
I79
tp18
sI17
(I42
I79
tp19
sI18
(I42
I80
tp20
sI19
(I42
I80
tp21
sI20
(I42
I80
tp22
sI21
(I43
I80
tp23
sI22
(I43
I81
tp24
sI23
(I44
I81
tp25
sI24
(I46
I81
tp26
sI25
(I45
I81
tp27
sI26
(I44
I81
tp28
sI27
(I42
I80
tp29
sI28
(I41
I80
tp30
sI29
(I40
I79
tp31
sI30
(I39
I79
tp32
sI31
(I39
I79
tp33
sI32
(I40
I80
tp34
sI33
(I41
I80
tp35
sI34
(I42
I81
tp36
sI35
(I44
I81
tp37
sI36
(I44
I82
tp38
sI37
(I46
I83
tp39
sI38
(I46
I84
tp40
sI39
(I43
I84
tp41
sI40
(I41
I84
tp42
sI41
(I40
I82
tp43
sI42
(I39
I81
tp44
sI43
(I38
I76
tp45
sI44
(I37
I77
tp46
sI45
(I36
I78
tp47
sI46
(I36
I79
tp48
sI47
(I36
I80
tp49
sI48
(I36
I80
tp50
sI49
(I36
I81
tp51
sI50
(I37
I81
tp52
sI51
(I37
I81
tp53
sI52
(I38
I81
tp54
sI53
(I37
I81
tp55
sI54
(I37
I81
tp56
sI55
(I36
I82
tp57
sI56
(I36
I82
tp58
sI57
(I36
I81
tp59
sI58
(I37
I81
tp60
sI59
(I37
I82
tp61
sI60
(I37
I82
tp62
sI61
(I36
I82
tp63
sI62
(I36
I83
tp64
sI63
(I36
I83
tp65
sI64
(I35
I83
tp66
sI65
(I35
I84
tp67
sI66
(I35
I84
tp68
sI67
(I34
I84
tp69
sI68
(I34
I85
tp70
sI69
(I33
I85
tp71
sI70
(I33
I86
tp72
sI71
(I32
I86
tp73
sI72
(I32
I87
tp74
sI73
(I31
I87
tp75
sI74
(I31
I87
tp76
sI75
(I31
I88
tp77
sI76
(I31
I88
tp78
sI77
(I30
I89
tp79
sI78
(I30
I90
tp80
sI79
(I30
I91
tp81
sI80
(I29
I91
tp82
sI81
(I29
I90
tp83
sI82
(I28
I85
tp84
sI83
(I27
I86
tp85
sI84
(I26
I87
tp86
sI85
(I25
I88
tp87
sI86
(I25
I88
tp88
sI87
(I25
I89
tp89
sI88
(I25
I90
tp90
sI89
(I26
I90
tp91
sI90
(I41
I91
tp92
sI91
(I41
I91
tp93
sI92
(I40
I92
tp94
sI93
(I40
I92
tp95
sI94
(I39
I93
tp96
sI95
(I39
I93
tp97
sI96
(I39
I94
tp98
sI97
(I38
I94
tp99
sI98
(I38
I95
tp100
sI99
(I38
I95
tp101
sI100
(I37
I96
tp102
sI101
(I37
I97
tp103
sI102
(I37
I97
tp104
sI103
(I37
I97
tp105
sI104
(I36
I97
tp106
sI105
(I36
I98
tp107
sI106
(I36
I98
tp108
sI107
(I35
I98
tp109
sI108
(I35
I99
tp110
sI109
(I35
I99
tp111
sI110
(I35
I99
tp112
sI111
(I35
I99
tp113
sI112
(I35
I99
tp114
sI113
(I34
I99
tp115
sI114
(I34
I99
tp116
sI115
(I34
I100
tp117
sI116
(I35
I100
tp118
sI117
(I36
I100
tp119
sI118
(I38
I100
tp120
sI119
(I39
I99
tp121
sI120
(I39
I95
tp122
sI121
(I32
I101
tp123
sI122
(I26
I107
tp124
sI123
(I21
I112
tp125
sI124
(I17
I116
tp126
sI125
(I14
I119
tp127
sI126
(I11
I122
tp128
sI127
(I8
I125
tp129
sI128
(I6
I127
tp130
sI129
(I5
I128
tp131
sI130
(I3
I130
tp132
sI131
(I2
I131
tp133
sI132
(I1
I132
tp134
sI133
(I1
I132
tp135
sI134
(I1
I132
tp136
sI135
(I1
I132
tp137
sI136
(I1
I132
tp138
sI137
(I1
I132
tp139
sI138
(I1
I132
tp140
sI139
(I2
I131
tp141
sI140
(I3
I130
tp142
sI141
(I5
I128
tp143
sI142
(I6
I127
tp144
sI143
(I8
I125
tp145
sI144
(I11
I122
tp146
sI145
(I14
I119
tp147
sI146
(I17
I116
tp148
sI147
(I21
I112
tp149
sI148
(I26
I107
tp150
sI149
(I32
I101
tp151
sI150
(I39
I94
tp152
sI151
(I51
I82
tp153
s(dp154
I0
(I134
I136
tp155
sI1
(I132
I138
tp156
sI2
(I131
I139
tp157
sI3
(I130
I140
tp158
sI4
(I130
I140
tp159
sI5
(I129
I141
tp160
sI6
(I128
I142
tp161
sI7
(I128
I142
tp162
sI8
(I127
I143
tp163
sI9
(I127
I143
tp164
sI10
(I127
I143
tp165
sI11
(I126
I144
tp166
sI12
(I126
I144
tp167
sI13
(I126
I144
tp168
sI14
(I125
I145
tp169
sI15
(I125
I145
tp170
sI16
(I125
I145
tp171
sI17
(I124
I146
tp172
sI18
(I124
I146
tp173
sI19
(I124
I146
tp174
sI20
(I124
I146
tp175
sI21
(I123
I147
tp176
sI22
(I123
I147
tp177
sI23
(I123
I147
tp178
sI24
(I123
I147
tp179
sI25
(I85
I147
tp180
sI26
(I84
I148
tp181
sI27
(I83
I148
tp182
sI28
(I82
I148
tp183
sI29
(I80
I148
tp184
sI30
(I77
I148
tp185
sI31
(I73
I148
tp186
sI32
(I71
I149
tp187
sI33
(I69
I149
tp188
sI34
(I67
I149
tp189
sI35
(I64
I149
tp190
sI36
(I45
I149
tp191
sI37
(I44
I149
tp192
sI38
(I43
I149
tp193
sI39
(I2
I150
tp194
sI40
(I1
I150
tp195
sI41
(I1
I150
tp196
sI42
(I1
I150
tp197
sI43
(I1
I150
tp198
sI44
(I2
I150
tp199
sI45
(I2
I150
tp200
sI46
(I3
I150
tp201
sI47
(I3
I150
tp202
sI48
(I4
I150
tp203
sI49
(I5
I150
tp204
sI50
(I5
I150
tp205
sI51
(I6
I150
tp206
sI52
(I7
I150
tp207
sI53
(I8
I150
tp208
sI54
(I9
I150
tp209
sI55
(I8
I150
tp210
sI56
(I7
I150
tp211
sI57
(I7
I150
tp212
sI58
(I6
I150
tp213
sI59
(I6
I150
tp214
sI60
(I5
I150
tp215
sI61
(I5
I150
tp216
sI62
(I5
I150
tp217
sI63
(I5
I150
tp218
sI64
(I5
I150
tp219
sI65
(I5
I150
tp220
sI66
(I5
I150
tp221
sI67
(I5
I150
tp222
sI68
(I4
I150
tp223
sI69
(I3
I150
tp224
sI70
(I2
I150
tp225
sI71
(I1
I150
tp226
sI72
(I1
I150
tp227
sI73
(I1
I150
tp228
sI74
(I2
I150
tp229
sI75
(I10
I150
tp230
sI76
(I11
I150
tp231
sI77
(I12
I150
tp232
sI78
(I13
I150
tp233
sI79
(I15
I150
tp234
sI80
(I18
I150
tp235
sI81
(I22
I150
tp236
sI82
(I36
I150
tp237
sI83
(I37
I150
tp238
sI84
(I38
I150
tp239
sI85
(I68
I150
tp240
sI86
(I70
I150
tp241
sI87
(I72
I150
tp242
sI88
(I75
I150
tp243
sI89
(I77
I150
tp244
sI90
(I78
I150
tp245
sI91
(I79
I150
tp246
sI92
(I92
I150
tp247
sI93
(I94
I150
tp248
sI94
(I96
I150
tp249
sI95
(I98
I149
tp250
sI96
(I100
I149
tp251
sI97
(I101
I149
tp252
sI98
(I105
I149
tp253
sI99
(I108
I149
tp254
sI100
(I115
I149
tp255
sI101
(I121
I149
tp256
sI102
(I122
I148
tp257
sI103
(I122
I148
tp258
sI104
(I122
I148
tp259
sI105
(I122
I148
tp260
sI106
(I122
I148
tp261
sI107
(I122
I148
tp262
sI108
(I123
I147
tp263
sI109
(I123
I147
tp264
sI110
(I123
I147
tp265
sI111
(I123
I147
tp266
sI112
(I123
I147
tp267
sI113
(I124
I146
tp268
sI114
(I124
I146
tp269
sI115
(I124
I146
tp270
sI116
(I124
I146
tp271
sI117
(I125
I145
tp272
sI118
(I125
I145
tp273
sI119
(I125
I145
tp274
sI120
(I126
I144
tp275
sI121
(I126
I144
tp276
sI122
(I126
I144
tp277
sI123
(I127
I143
tp278
sI124
(I127
I143
tp279
sI125
(I127
I143
tp280
sI126
(I128
I142
tp281
sI127
(I128
I142
tp282
sI128
(I129
I141
tp283
sI129
(I130
I140
tp284
sI130
(I130
I140
tp285
sI131
(I131
I139
tp286
sI132
(I132
I138
tp287
sI133
(I134
I136
tp288
stp289
.