((dp1
I0
(I72
I72
tp2
sI1
(I40
I73
tp3
sI2
(I39
I74
tp4
sI3
(I39
I74
tp5
sI4
(I39
I74
tp6
sI5
(I39
I74
tp7
sI6
(I39
I74
tp8
sI7
(I40
I74
tp9
sI8
(I40
I74
tp10
sI9
(I40
I74
tp11
sI10
(I40
I75
tp12
sI11
(I40
I76
tp13
sI12
(I41
I77
tp14
sI13
(I41
I78
tp15
sI14
(I41
I78
tp16
sI15
(I41
I79
tp17
sI16
(I41
I79
tp18
sI17
(I42
I79
tp19
sI18
(I42
I80
tp20
sI19
(I42
I80
tp21
sI20
(I42
I80
tp22
sI21
(I43
I80
tp23
sI22
(I43
I82
tp24
sI23
(I39
I94
tp25
sI24
(I32
I101
tp26
sI25
(I26
I107
tp27
sI26
(I21
I112
tp28
sI27
(I17
I116
tp29
sI28
(I14
I119
tp30
sI29
(I11
I122
tp31
sI30
(I8
I125
tp32
sI31
(I6
I127
tp33
sI32
(I5
I128
tp34
sI33
(I3
I130
tp35
sI34
(I2
I131
tp36
sI35
(I1
I132
tp37
sI36
(I1
I132
tp38
sI37
(I1
I132
tp39
sI38
(I1
I132
tp40
sI39
(I1
I132
tp41
sI40
(I1
I132
tp42
sI41
(I1
I132
tp43
sI42
(I2
I131
tp44
sI43
(I3
I130
tp45
sI44
(I5
I128
tp46
sI45
(I6
I127
tp47
sI46
(I8
I125
tp48
sI47
(I11
I122
tp49
sI48
(I14
I119
tp50
sI49
(I17
I116
tp51
sI50
(I21
I112
tp52
sI51
(I26
I107
tp53
sI52
(I32
I101
tp54
sI53
(I39
I94
tp55
sI54
(I51
I82
tp56
s(dp57
I0
(I37
I39
tp58
sI1
(I35
I41
tp59
sI2
(I34
I42
tp60
sI3
(I33
I43
tp61
sI4
(I33
I43
tp62
sI5
(I32
I44
tp63
sI6
(I31
I45
tp64
sI7
(I31
I45
tp65
sI8
(I30
I46
tp66
sI9
(I30
I46
tp67
sI10
(I30
I46
tp68
sI11
(I29
I47
tp69
sI12
(I29
I47
tp70
sI13
(I29
I47
tp71
sI14
(I28
I48
tp72
sI15
(I28
I48
tp73
sI16
(I28
I48
tp74
sI17
(I27
I49
tp75
sI18
(I27
I49
tp76
sI19
(I27
I49
tp77
sI20
(I27
I49
tp78
sI21
(I26
I50
tp79
sI22
(I26
I50
tp80
sI23
(I26
I50
tp81
sI24
(I26
I50
tp82
sI25
(I26
I50
tp83
sI26
(I25
I51
tp84
sI27
(I25
I51
tp85
sI28
(I25
I51
tp86
sI29
(I25
I51
tp87
sI30
(I25
I51
tp88
sI31
(I25
I51
tp89
sI32
(I24
I52
tp90
sI33
(I24
I52
tp91
sI34
(I24
I52
tp92
sI35
(I24
I52
tp93
sI36
(I24
I52
tp94
sI37
(I24
I52
tp95
sI38
(I24
I52
tp96
sI39
(I2
I53
tp97
sI40
(I1
I53
tp98
sI41
(I1
I53
tp99
sI42
(I1
I53
tp100
sI43
(I1
I53
tp101
sI44
(I2
I53
tp102
sI45
(I2
I53
tp103
sI46
(I3
I53
tp104
sI47
(I3
I53
tp105
sI48
(I4
I53
tp106
sI49
(I5
I53
tp107
sI50
(I5
I53
tp108
sI51
(I6
I53
tp109
sI52
(I7
I53
tp110
sI53
(I8
I53
tp111
sI54
(I9
I53
tp112
sI55
(I8
I53
tp113
sI56
(I7
I53
tp114
sI57
(I7
I53
tp115
sI58
(I6
I53
tp116
sI59
(I6
I53
tp117
sI60
(I5
I53
tp118
sI61
(I5
I53
tp119
sI62
(I5
I53
tp120
sI63
(I5
I53
tp121
sI64
(I5
I53
tp122
sI65
(I5
I53
tp123
sI66
(I5
I53
tp124
sI67
(I5
I53
tp125
sI68
(I4
I53
tp126
sI69
(I3
I53
tp127
sI70
(I2
I53
tp128
sI71
(I1
I53
tp129
sI72
(I1
I53
tp130
sI73
(I1
I53
tp131
sI74
(I2
I53
tp132
sI75
(I10
I53
tp133
sI76
(I11
I53
tp134
sI77
(I12
I53
tp135
sI78
(I13
I53
tp136
sI79
(I15
I53
tp137
sI80
(I18
I53
tp138
sI81
(I22
I53
tp139
sI82
(I22
I53
tp140
sI83
(I23
I53
tp141
sI84
(I23
I53
tp142
sI85
(I23
I53
tp143
sI86
(I23
I53
tp144
sI87
(I23
I53
tp145
sI88
(I23
I53
tp146
sI89
(I23
I53
tp147
sI90
(I23
I53
tp148
sI91
(I23
I53
tp149
sI92
(I23
I53
tp150
sI93
(I23
I53
tp151
sI94
(I23
I53
tp152
sI95
(I24
I52
tp153
sI96
(I24
I52
tp154
sI97
(I24
I52
tp155
sI98
(I24
I52
tp156
sI99
(I24
I52
tp157
sI100
(I24
I52
tp158
sI101
(I24
I52
tp159
sI102
(I25
I51
tp160
sI103
(I25
I51
tp161
sI104
(I25
I51
tp162
sI105
(I25
I51
tp163
sI106
(I25
I51
tp164
sI107
(I25
I51
tp165
sI108
(I26
I50
tp166
sI109
(I26
I50
tp167
sI110
(I26
I50
tp168
sI111
(I26
I50
tp169
sI112
(I26
I50
tp170
sI113
(I27
I49
tp171
sI114
(I27
I49
tp172
sI115
(I27
I49
tp173
sI116
(I27
I49
tp174
sI117
(I28
I48
tp175
sI118
(I28
I48
tp176
sI119
(I28
I48
tp177
sI120
(I29
I47
tp178
sI121
(I29
I47
tp179
sI122
(I29
I47
tp180
sI123
(I30
I46
tp181
sI124
(I30
I46
tp182
sI125
(I30
I46
tp183
sI126
(I31
I45
tp184
sI127
(I31
I45
tp185
sI128
(I32
I44
tp186
sI129
(I33
I43
tp187
sI130
(I33
I43
tp188
sI131
(I34
I42
tp189
sI132
(I35
I41
tp190
sI133
(I37
I39
tp191
stp192
.