((dp1
I1
(I43
I43
tp2
sI2
(I11
I44
tp3
sI3
(I10
I45
tp4
sI4
(I10
I45
tp5
sI5
(I10
I45
tp6
sI6
(I10
I45
tp7
sI7
(I10
I45
tp8
sI8
(I11
I45
tp9
sI9
(I11
I45
tp10
sI10
(I11
I45
tp11
sI11
(I11
I46
tp12
sI12
(I11
I47
tp13
sI13
(I12
I48
tp14
sI14
(I12
I49
tp15
sI15
(I12
I49
tp16
sI16
(I12
I50
tp17
sI17
(I12
I50
tp18
sI18
(I13
I50
tp19
sI19
(I13
I51
tp20
sI20
(I13
I51
tp21
sI21
(I13
I51
tp22
sI22
(I14
I51
tp23
sI23
(I14
I52
tp24
sI24
(I15
I52
tp25
sI25
(I17
I52
tp26
sI26
(I16
I52
tp27
sI27
(I15
I52
tp28
sI28
(I13
I51
tp29
sI29
(I12
I51
tp30
sI30
(I11
I50
tp31
sI31
(I10
I50
tp32
sI32
(I10
I50
tp33
sI33
(I11
I51
tp34
sI34
(I12
I51
tp35
sI35
(I13
I52
tp36
sI36
(I15
I52
tp37
sI37
(I15
I53
tp38
sI38
(I17
I54
tp39
sI39
(I17
I55
tp40
sI40
(I14
I55
tp41
sI41
(I12
I73
tp42
sI42
(I11
I89
tp43
sI43
(I10
I95
tp44
sI44
(I9
I99
tp45
sI45
(I8
I103
tp46
sI46
(I7
I106
tp47
sI47
(I7
I108
tp48
sI48
(I7
I110
tp49
sI49
(I7
I112
tp50
sI50
(I7
I113
tp51
sI51
(I8
I114
tp52
sI52
(I8
I116
tp53
sI53
(I9
I116
tp54
sI54
(I8
I117
tp55
sI55
(I8
I118
tp56
sI56
(I7
I118
tp57
sI57
(I7
I119
tp58
sI58
(I7
I119
tp59
sI59
(I8
I120
tp60
sI60
(I8
I120
tp61
sI61
(I8
I120
tp62
sI62
(I7
I120
tp63
sI63
(I7
I120
tp64
sI64
(I7
I120
tp65
sI65
(I6
I120
tp66
sI66
(I6
I120
tp67
sI67
(I6
I120
tp68
sI68
(I5
I120
tp69
sI69
(I5
I120
tp70
sI70
(I4
I120
tp71
sI71
(I4
I120
tp72
sI72
(I3
I120
tp73
sI73
(I3
I120
tp74
sI74
(I2
I119
tp75
sI75
(I2
I119
tp76
sI76
(I2
I118
tp77
sI77
(I2
I118
tp78
sI78
(I1
I117
tp79
sI79
(I1
I116
tp80
sI80
(I1
I116
tp81
sI81
(I1
I114
tp82
sI82
(I1
I113
tp83
sI83
(I1
I112
tp84
sI84
(I1
I110
tp85
sI85
(I1
I108
tp86
sI86
(I2
I106
tp87
sI87
(I14
I103
tp88
sI88
(I13
I99
tp89
sI89
(I13
I95
tp90
sI90
(I12
I89
tp91
sI91
(I12
I73
tp92
sI92
(I12
I62
tp93
sI93
(I11
I63
tp94
sI94
(I11
I63
tp95
sI95
(I10
I64
tp96
sI96
(I10
I64
tp97
sI97
(I10
I65
tp98
sI98
(I9
I65
tp99
sI99
(I9
I66
tp100
sI100
(I9
I66
tp101
sI101
(I8
I67
tp102
sI102
(I8
I68
tp103
sI103
(I8
I68
tp104
sI104
(I8
I68
tp105
sI105
(I7
I68
tp106
sI106
(I7
I69
tp107
sI107
(I7
I69
tp108
sI108
(I6
I69
tp109
sI109
(I6
I70
tp110
sI110
(I6
I70
tp111
sI111
(I6
I70
tp112
sI112
(I6
I70
tp113
sI113
(I6
I70
tp114
sI114
(I5
I70
tp115
sI115
(I5
I70
tp116
sI116
(I5
I71
tp117
sI117
(I6
I71
tp118
sI118
(I7
I71
tp119
sI119
(I9
I71
tp120
sI120
(I10
I70
tp121
sI121
(I12
I66
tp122
sI122
(I13
I60
tp123
sI123
(I15
I57
tp124
sI124
(I20
I47
tp125
sI125
(I24
I44
tp126
sI126
(I24
I44
tp127
sI127
(I24
I44
tp128
sI128
(I24
I44
tp129
sI129
(I24
I44
tp130
sI130
(I24
I44
tp131
sI131
(I24
I44
tp132
sI132
(I24
I44
tp133
sI133
(I24
I44
tp134
sI134
(I24
I44
tp135
sI135
(I24
I44
tp136
sI136
(I23
I44
tp137
sI137
(I23
I44
tp138
sI138
(I23
I44
tp139
sI139
(I23
I44
tp140
sI140
(I23
I44
tp141
sI141
(I23
I44
tp142
sI142
(I23
I44
tp143
sI143
(I23
I44
tp144
sI144
(I23
I44
tp145
sI145
(I24
I44
tp146
sI146
(I24
I44
tp147
sI147
(I24
I44
tp148
sI148
(I25
I44
tp149
sI149
(I25
I44
tp150
sI150
(I26
I44
tp151
sI151
(I26
I43
tp152
sI152
(I27
I43
tp153
sI153
(I28
I42
tp154
sI154
(I29
I41
tp155
s(dp156
I0
(I81
I84
tp157
sI1
(I78
I85
tp158
sI2
(I74
I86
tp159
sI3
(I72
I86
tp160
sI4
(I70
I86
tp161
sI5
(I68
I116
tp162
sI6
(I65
I117
tp163
sI7
(I46
I118
tp164
sI8
(I45
I118
tp165
sI9
(I44
I119
tp166
sI10
(I3
I120
tp167
sI11
(I2
I120
tp168
sI12
(I2
I121
tp169
sI13
(I2
I122
tp170
sI14
(I2
I122
tp171
sI15
(I3
I123
tp172
sI16
(I3
I123
tp173
sI17
(I4
I123
tp174
sI18
(I4
I123
tp175
sI19
(I5
I123
tp176
sI20
(I6
I124
tp177
sI21
(I6
I124
tp178
sI22
(I7
I124
tp179
sI23
(I8
I144
tp180
sI24
(I9
I147
tp181
sI25
(I10
I149
tp182
sI26
(I9
I151
tp183
sI27
(I8
I152
tp184
sI28
(I8
I153
tp185
sI29
(I7
I153
tp186
sI30
(I7
I153
tp187
sI31
(I6
I153
tp188
sI32
(I6
I153
tp189
sI33
(I6
I153
tp190
sI34
(I6
I153
tp191
sI35
(I6
I151
tp192
sI36
(I6
I151
tp193
sI37
(I6
I152
tp194
sI38
(I6
I153
tp195
sI39
(I5
I153
tp196
sI40
(I4
I153
tp197
sI41
(I3
I153
tp198
sI42
(I2
I153
tp199
sI43
(I1
I152
tp200
sI44
(I2
I150
tp201
sI45
(I3
I124
tp202
sI46
(I11
I124
tp203
sI47
(I12
I124
tp204
sI48
(I13
I123
tp205
sI49
(I14
I123
tp206
sI50
(I16
I123
tp207
sI51
(I19
I123
tp208
sI52
(I23
I123
tp209
sI53
(I37
I123
tp210
sI54
(I38
I123
tp211
sI55
(I39
I123
tp212
sI56
(I42
I123
tp213
sI57
(I42
I123
tp214
sI58
(I42
I122
tp215
sI59
(I42
I122
tp216
sI60
(I42
I122
tp217
sI61
(I42
I121
tp218
sI62
(I42
I121
tp219
sI63
(I42
I121
tp220
sI64
(I42
I121
tp221
sI65
(I42
I121
tp222
sI66
(I42
I121
tp223
sI67
(I42
I120
tp224
sI68
(I41
I120
tp225
sI69
(I41
I120
tp226
sI70
(I41
I120
tp227
sI71
(I41
I119
tp228
sI72
(I41
I91
tp229
sI73
(I41
I91
tp230
sI74
(I42
I90
tp231
sI75
(I42
I90
tp232
sI76
(I42
I90
tp233
sI77
(I42
I90
tp234
sI78
(I42
I90
tp235
sI79
(I42
I90
tp236
sI80
(I42
I90
tp237
sI81
(I42
I90
tp238
sI82
(I42
I90
tp239
sI83
(I42
I90
tp240
sI84
(I42
I90
tp241
sI85
(I42
I90
tp242
sI86
(I42
I90
tp243
sI87
(I42
I90
tp244
sI88
(I42
I90
tp245
sI89
(I42
I90
tp246
sI90
(I43
I89
tp247
sI91
(I43
I89
tp248
sI92
(I43
I89
tp249
sI93
(I43
I89
tp250
sI94
(I43
I89
tp251
sI95
(I43
I89
tp252
sI96
(I44
I88
tp253
sI97
(I44
I88
tp254
sI98
(I44
I88
tp255
sI99
(I44
I88
tp256
sI100
(I45
I87
tp257
sI101
(I45
I87
tp258
sI102
(I45
I87
tp259
sI103
(I45
I87
tp260
sI104
(I46
I86
tp261
sI105
(I46
I86
tp262
sI106
(I46
I86
tp263
sI107
(I47
I85
tp264
sI108
(I47
I85
tp265
sI109
(I48
I84
tp266
sI110
(I48
I84
tp267
sI111
(I49
I83
tp268
sI112
(I49
I83
tp269
sI113
(I50
I82
tp270
sI114
(I51
I81
tp271
sI115
(I52
I80
tp272
sI116
(I52
I80
tp273
sI117
(I54
I78
tp274
sI118
(I55
I77
tp275
sI119
(I57
I75
tp276
sI120
(I59
I73
tp277
sI121
(I63
I69
tp278
stp279
.