((dp1
I0
(I47
I47
tp2
sI1
(I15
I48
tp3
sI2
(I14
I49
tp4
sI3
(I14
I49
tp5
sI4
(I14
I49
tp6
sI5
(I14
I49
tp7
sI6
(I14
I49
tp8
sI7
(I15
I49
tp9
sI8
(I15
I49
tp10
sI9
(I15
I49
tp11
sI10
(I15
I50
tp12
sI11
(I15
I51
tp13
sI12
(I16
I52
tp14
sI13
(I16
I53
tp15
sI14
(I16
I53
tp16
sI15
(I16
I54
tp17
sI16
(I16
I54
tp18
sI17
(I17
I54
tp19
sI18
(I17
I55
tp20
sI19
(I17
I55
tp21
sI20
(I17
I55
tp22
sI21
(I18
I55
tp23
sI22
(I18
I56
tp24
sI23
(I19
I56
tp25
sI24
(I21
I56
tp26
sI25
(I20
I56
tp27
sI26
(I19
I56
tp28
sI27
(I17
I55
tp29
sI28
(I16
I55
tp30
sI29
(I15
I54
tp31
sI30
(I14
I54
tp32
sI31
(I14
I54
tp33
sI32
(I15
I55
tp34
sI33
(I16
I55
tp35
sI34
(I17
I56
tp36
sI35
(I19
I56
tp37
sI36
(I19
I57
tp38
sI37
(I21
I58
tp39
sI38
(I21
I59
tp40
sI39
(I18
I59
tp41
sI40
(I16
I59
tp42
sI41
(I15
I57
tp43
sI42
(I14
I56
tp44
sI43
(I13
I51
tp45
sI44
(I12
I52
tp46
sI45
(I11
I53
tp47
sI46
(I11
I54
tp48
sI47
(I11
I55
tp49
sI48
(I11
I55
tp50
sI49
(I11
I56
tp51
sI50
(I12
I56
tp52
sI51
(I12
I56
tp53
sI52
(I13
I56
tp54
sI53
(I12
I56
tp55
sI54
(I12
I56
tp56
sI55
(I11
I57
tp57
sI56
(I11
I57
tp58
sI57
(I11
I56
tp59
sI58
(I12
I56
tp60
sI59
(I12
I57
tp61
sI60
(I12
I57
tp62
sI61
(I11
I57
tp63
sI62
(I11
I58
tp64
sI63
(I11
I58
tp65
sI64
(I10
I58
tp66
sI65
(I10
I59
tp67
sI66
(I10
I59
tp68
sI67
(I9
I59
tp69
sI68
(I9
I60
tp70
sI69
(I8
I60
tp71
sI70
(I8
I61
tp72
sI71
(I7
I61
tp73
sI72
(I7
I62
tp74
sI73
(I6
I62
tp75
sI74
(I6
I62
tp76
sI75
(I6
I63
tp77
sI76
(I6
I63
tp78
sI77
(I5
I64
tp79
sI78
(I5
I65
tp80
sI79
(I5
I66
tp81
sI80
(I4
I66
tp82
sI81
(I4
I65
tp83
sI82
(I3
I60
tp84
sI83
(I2
I61
tp85
sI84
(I1
I62
tp86
sI85
(I1
I63
tp87
sI86
(I1
I63
tp88
sI87
(I1
I64
tp89
sI88
(I1
I65
tp90
sI89
(I1
I65
tp91
sI90
(I16
I66
tp92
sI91
(I16
I66
tp93
sI92
(I15
I67
tp94
sI93
(I15
I67
tp95
sI94
(I14
I68
tp96
sI95
(I14
I68
tp97
sI96
(I14
I69
tp98
sI97
(I13
I69
tp99
sI98
(I13
I70
tp100
sI99
(I13
I70
tp101
sI100
(I12
I71
tp102
sI101
(I12
I72
tp103
sI102
(I12
I72
tp104
sI103
(I12
I72
tp105
sI104
(I11
I72
tp106
sI105
(I11
I73
tp107
sI106
(I11
I73
tp108
sI107
(I10
I73
tp109
sI108
(I10
I74
tp110
sI109
(I10
I74
tp111
sI110
(I10
I74
tp112
sI111
(I10
I74
tp113
sI112
(I10
I74
tp114
sI113
(I9
I74
tp115
sI114
(I9
I74
tp116
sI115
(I9
I74
tp117
sI116
(I10
I74
tp118
sI117
(I11
I74
tp119
sI118
(I13
I74
tp120
sI119
(I14
I74
tp121
sI120
(I16
I70
tp122
sI121
(I17
I64
tp123
sI122
(I19
I61
tp124
sI123
(I24
I51
tp125
sI124
(I28
I48
tp126
sI125
(I28
I48
tp127
sI126
(I28
I48
tp128
sI127
(I28
I48
tp129
sI128
(I28
I48
tp130
sI129
(I28
I48
tp131
sI130
(I28
I48
tp132
sI131
(I28
I48
tp133
sI132
(I28
I48
tp134
sI133
(I28
I48
tp135
sI134
(I28
I48
tp136
sI135
(I27
I48
tp137
sI136
(I27
I48
tp138
sI137
(I27
I48
tp139
sI138
(I27
I48
tp140
sI139
(I27
I48
tp141
sI140
(I27
I48
tp142
sI141
(I27
I48
tp143
sI142
(I27
I48
tp144
sI143
(I27
I48
tp145
sI144
(I28
I48
tp146
sI145
(I28
I48
tp147
sI146
(I28
I48
tp148
sI147
(I29
I48
tp149
sI148
(I29
I48
tp150
sI149
(I30
I48
tp151
sI150
(I30
I48
tp152
sI151
(I31
I47
tp153
sI152
(I32
I47
tp154
sI153
(I33
I46
tp155
sI154
(I34
I45
tp156
s(dp157
I0
(I85
I88
tp158
sI1
(I84
I89
tp159
sI2
(I83
I89
tp160
sI3
(I82
I89
tp161
sI4
(I80
I89
tp162
sI5
(I77
I89
tp163
sI6
(I73
I88
tp164
sI7
(I71
I87
tp165
sI8
(I69
I88
tp166
sI9
(I67
I115
tp167
sI10
(I64
I116
tp168
sI11
(I45
I117
tp169
sI12
(I44
I117
tp170
sI13
(I43
I118
tp171
sI14
(I2
I119
tp172
sI15
(I1
I119
tp173
sI16
(I1
I120
tp174
sI17
(I1
I121
tp175
sI18
(I1
I121
tp176
sI19
(I2
I122
tp177
sI20
(I2
I122
tp178
sI21
(I3
I122
tp179
sI22
(I3
I122
tp180
sI23
(I4
I122
tp181
sI24
(I5
I123
tp182
sI25
(I5
I123
tp183
sI26
(I6
I123
tp184
sI27
(I7
I143
tp185
sI28
(I8
I146
tp186
sI29
(I9
I148
tp187
sI30
(I8
I150
tp188
sI31
(I7
I151
tp189
sI32
(I7
I152
tp190
sI33
(I6
I153
tp191
sI34
(I6
I153
tp192
sI35
(I5
I153
tp193
sI36
(I5
I153
tp194
sI37
(I5
I153
tp195
sI38
(I5
I152
tp196
sI39
(I5
I150
tp197
sI40
(I5
I151
tp198
sI41
(I5
I152
tp199
sI42
(I5
I153
tp200
sI43
(I4
I153
tp201
sI44
(I3
I153
tp202
sI45
(I2
I153
tp203
sI46
(I1
I153
tp204
sI47
(I1
I152
tp205
sI48
(I1
I150
tp206
sI49
(I2
I123
tp207
sI50
(I10
I123
tp208
sI51
(I11
I123
tp209
sI52
(I12
I122
tp210
sI53
(I13
I122
tp211
sI54
(I15
I122
tp212
sI55
(I18
I122
tp213
sI56
(I22
I122
tp214
sI57
(I36
I122
tp215
sI58
(I37
I122
tp216
sI59
(I38
I122
tp217
sI60
(I68
I122
tp218
sI61
(I70
I122
tp219
sI62
(I72
I121
tp220
sI63
(I75
I121
tp221
sI64
(I77
I121
tp222
sI65
(I78
I120
tp223
sI66
(I79
I120
tp224
sI67
(I92
I120
tp225
sI68
(I94
I120
tp226
sI69
(I96
I120
tp227
sI70
(I98
I120
tp228
sI71
(I100
I119
tp229
sI72
(I101
I119
tp230
sI73
(I105
I119
tp231
sI74
(I108
I119
tp232
sI75
(I115
I118
tp233
stp234
.