((dp1
I0
(I36
I36
tp2
sI1
(I35
I38
tp3
sI2
(I34
I39
tp4
sI3
(I34
I40
tp5
sI4
(I34
I41
tp6
sI5
(I34
I42
tp7
sI6
(I34
I43
tp8
sI7
(I34
I43
tp9
sI8
(I34
I51
tp10
sI9
(I34
I54
tp11
sI10
(I34
I56
tp12
sI11
(I34
I57
tp13
sI12
(I34
I58
tp14
sI13
(I33
I59
tp15
sI14
(I24
I60
tp16
sI15
(I24
I61
tp17
sI16
(I23
I62
tp18
sI17
(I23
I64
tp19
sI18
(I23
I67
tp20
sI19
(I24
I68
tp21
sI20
(I25
I68
tp22
sI21
(I26
I68
tp23
sI22
(I27
I67
tp24
sI23
(I26
I67
tp25
sI24
(I25
I66
tp26
sI25
(I24
I65
tp27
sI26
(I24
I64
tp28
sI27
(I25
I64
tp29
sI28
(I26
I64
tp30
sI29
(I26
I63
tp31
sI30
(I27
I62
tp32
sI31
(I27
I62
tp33
sI32
(I31
I61
tp34
sI33
(I31
I62
tp35
sI34
(I36
I62
tp36
sI35
(I35
I63
tp37
sI36
(I35
I64
tp38
sI37
(I35
I64
tp39
sI38
(I34
I64
tp40
sI39
(I19
I64
tp41
sI40
(I16
I64
tp42
sI41
(I13
I64
tp43
sI42
(I11
I61
tp44
sI43
(I10
I62
tp45
sI44
(I9
I62
tp46
sI45
(I9
I63
tp47
sI46
(I9
I63
tp48
sI47
(I9
I64
tp49
sI48
(I9
I68
tp50
sI49
(I9
I69
tp51
sI50
(I9
I69
tp52
sI51
(I9
I71
tp53
sI52
(I8
I74
tp54
sI53
(I7
I77
tp55
sI54
(I6
I79
tp56
sI55
(I6
I81
tp57
sI56
(I7
I83
tp58
sI57
(I7
I85
tp59
sI58
(I6
I86
tp60
sI59
(I5
I86
tp61
sI60
(I5
I86
tp62
sI61
(I4
I86
tp63
sI62
(I4
I86
tp64
sI63
(I3
I86
tp65
sI64
(I3
I83
tp66
sI65
(I2
I46
tp67
sI66
(I2
I49
tp68
sI67
(I1
I51
tp69
sI68
(I1
I53
tp70
sI69
(I1
I56
tp71
sI70
(I1
I58
tp72
sI71
(I1
I61
tp73
sI72
(I1
I64
tp74
sI73
(I1
I68
tp75
sI74
(I1
I70
tp76
sI75
(I1
I72
tp77
sI76
(I16
I74
tp78
sI77
(I16
I74
tp79
sI78
(I15
I74
tp80
sI79
(I15
I74
tp81
sI80
(I14
I74
tp82
sI81
(I14
I74
tp83
sI82
(I13
I74
tp84
sI83
(I13
I74
tp85
sI84
(I12
I73
tp86
sI85
(I12
I73
tp87
sI86
(I12
I73
tp88
sI87
(I11
I72
tp89
sI88
(I11
I72
tp90
sI89
(I11
I72
tp91
sI90
(I11
I72
tp92
sI91
(I10
I71
tp93
sI92
(I10
I71
tp94
sI93
(I9
I70
tp95
sI94
(I9
I70
tp96
sI95
(I9
I70
tp97
sI96
(I9
I70
tp98
sI97
(I8
I70
tp99
sI98
(I8
I70
tp100
sI99
(I8
I69
tp101
sI100
(I8
I69
tp102
sI101
(I8
I69
tp103
sI102
(I8
I68
tp104
sI103
(I8
I68
tp105
sI104
(I7
I67
tp106
sI105
(I7
I67
tp107
sI106
(I7
I67
tp108
sI107
(I7
I67
tp109
sI108
(I7
I67
tp110
sI109
(I7
I68
tp111
sI110
(I7
I68
tp112
sI111
(I7
I68
tp113
sI112
(I7
I69
tp114
sI113
(I7
I69
tp115
sI114
(I7
I69
tp116
sI115
(I7
I69
tp117
sI116
(I7
I70
tp118
sI117
(I7
I70
tp119
sI118
(I7
I70
tp120
sI119
(I8
I70
tp121
sI120
(I10
I70
tp122
sI121
(I16
I70
tp123
sI122
(I28
I70
tp124
sI123
(I28
I70
tp125
sI124
(I28
I70
tp126
sI125
(I28
I70
tp127
sI126
(I29
I70
tp128
sI127
(I29
I70
tp129
sI128
(I29
I70
tp130
sI129
(I30
I70
tp131
sI130
(I30
I69
tp132
sI131
(I31
I68
tp133
sI132
(I31
I42
tp134
sI133
(I32
I42
tp135
sI134
(I32
I42
tp136
sI135
(I32
I41
tp137
sI136
(I33
I41
tp138
sI137
(I33
I41
tp139
sI138
(I34
I41
tp140
sI139
(I34
I41
tp141
sI140
(I34
I40
tp142
sI141
(I35
I40
tp143
sI142
(I36
I39
tp144
sI143
(I37
I38
tp145
s(dp146
I0
(I71
I73
tp147
sI1
(I67
I75
tp148
sI2
(I65
I75
tp149
sI3
(I63
I75
tp150
sI4
(I61
I75
tp151
sI5
(I59
I74
tp152
sI6
(I54
I73
tp153
sI7
(I53
I118
tp154
sI8
(I52
I119
tp155
sI9
(I44
I119
tp156
sI10
(I43
I120
tp157
sI11
(I42
I120
tp158
sI12
(I42
I120
tp159
sI13
(I41
I120
tp160
sI14
(I41
I120
tp161
sI15
(I41
I120
tp162
sI16
(I40
I121
tp163
sI17
(I40
I121
tp164
sI18
(I40
I121
tp165
sI19
(I39
I120
tp166
sI20
(I39
I120
tp167
sI21
(I39
I120
tp168
sI22
(I39
I120
tp169
sI23
(I16
I120
tp170
sI24
(I14
I120
tp171
sI25
(I14
I120
tp172
sI26
(I14
I119
tp173
sI27
(I14
I120
tp174
sI28
(I14
I125
tp175
sI29
(I14
I128
tp176
sI30
(I14
I130
tp177
sI31
(I14
I132
tp178
sI32
(I15
I135
tp179
sI33
(I13
I137
tp180
sI34
(I2
I140
tp181
sI35
(I1
I141
tp182
sI36
(I1
I142
tp183
sI37
(I1
I142
tp184
sI38
(I1
I142
tp185
sI39
(I2
I142
tp186
sI40
(I3
I141
tp187
sI41
(I4
I139
tp188
sI42
(I5
I134
tp189
sI43
(I6
I117
tp190
sI44
(I8
I116
tp191
sI45
(I8
I115
tp192
sI46
(I8
I115
tp193
sI47
(I8
I115
tp194
sI48
(I8
I114
tp195
sI49
(I8
I114
tp196
sI50
(I8
I113
tp197
sI51
(I8
I113
tp198
sI52
(I9
I112
tp199
sI53
(I9
I112
tp200
sI54
(I9
I112
tp201
sI55
(I10
I112
tp202
sI56
(I10
I112
tp203
sI57
(I11
I115
tp204
sI58
(I12
I118
tp205
sI59
(I13
I120
tp206
sI60
(I14
I123
tp207
sI61
(I15
I124
tp208
sI62
(I16
I125
tp209
sI63
(I17
I127
tp210
sI64
(I17
I128
tp211
sI65
(I18
I130
tp212
sI66
(I18
I131
tp213
sI67
(I18
I131
tp214
sI68
(I19
I131
tp215
sI69
(I49
I130
tp216
sI70
(I51
I129
tp217
sI71
(I51
I92
tp218
sI72
(I52
I90
tp219
sI73
(I52
I86
tp220
sI74
(I52
I83
tp221
sI75
(I53
I62
tp222
sI76
(I53
I62
tp223
sI77
(I53
I63
tp224
sI78
(I54
I63
tp225
sI79
(I54
I64
tp226
sI80
(I55
I64
tp227
sI81
(I55
I64
tp228
sI82
(I56
I64
tp229
sI83
(I56
I64
tp230
sI84
(I57
I63
tp231
sI85
(I57
I63
tp232
sI86
(I58
I63
tp233
sI87
(I59
I62
tp234
stp235
.