((dp1
I0
(I51
I82
tp2
sI1
(I39
I94
tp3
sI2
(I32
I101
tp4
sI3
(I26
I107
tp5
sI4
(I21
I112
tp6
sI5
(I17
I116
tp7
sI6
(I14
I119
tp8
sI7
(I11
I122
tp9
sI8
(I8
I125
tp10
sI9
(I6
I127
tp11
sI10
(I5
I128
tp12
sI11
(I3
I130
tp13
sI12
(I2
I131
tp14
sI13
(I1
I132
tp15
sI14
(I1
I132
tp16
sI15
(I1
I132
tp17
sI16
(I1
I132
tp18
sI17
(I1
I132
tp19
sI18
(I1
I132
tp20
sI19
(I1
I132
tp21
sI20
(I2
I131
tp22
sI21
(I3
I130
tp23
sI22
(I5
I128
tp24
sI23
(I6
I127
tp25
sI24
(I8
I125
tp26
sI25
(I11
I122
tp27
sI26
(I14
I119
tp28
sI27
(I17
I116
tp29
sI28
(I21
I112
tp30
sI29
(I26
I107
tp31
sI30
(I32
I101
tp32
sI31
(I39
I94
tp33
sI32
(I51
I82
tp34
s(dp35
I0
(I15
I17
tp36
sI1
(I13
I19
tp37
sI2
(I12
I20
tp38
sI3
(I11
I21
tp39
sI4
(I11
I21
tp40
sI5
(I10
I22
tp41
sI6
(I9
I23
tp42
sI7
(I9
I23
tp43
sI8
(I8
I24
tp44
sI9
(I8
I24
tp45
sI10
(I8
I24
tp46
sI11
(I7
I25
tp47
sI12
(I7
I25
tp48
sI13
(I7
I25
tp49
sI14
(I6
I26
tp50
sI15
(I6
I26
tp51
sI16
(I6
I26
tp52
sI17
(I5
I27
tp53
sI18
(I5
I27
tp54
sI19
(I5
I27
tp55
sI20
(I5
I27
tp56
sI21
(I4
I28
tp57
sI22
(I4
I28
tp58
sI23
(I4
I28
tp59
sI24
(I4
I28
tp60
sI25
(I4
I28
tp61
sI26
(I3
I29
tp62
sI27
(I3
I29
tp63
sI28
(I3
I29
tp64
sI29
(I3
I29
tp65
sI30
(I3
I29
tp66
sI31
(I3
I29
tp67
sI32
(I2
I30
tp68
sI33
(I2
I30
tp69
sI34
(I2
I30
tp70
sI35
(I2
I30
tp71
sI36
(I2
I30
tp72
sI37
(I2
I30
tp73
sI38
(I2
I30
tp74
sI39
(I1
I31
tp75
sI40
(I1
I31
tp76
sI41
(I1
I31
tp77
sI42
(I1
I31
tp78
sI43
(I1
I31
tp79
sI44
(I1
I31
tp80
sI45
(I1
I31
tp81
sI46
(I1
I31
tp82
sI47
(I1
I31
tp83
sI48
(I1
I31
tp84
sI49
(I1
I31
tp85
sI50
(I1
I31
tp86
sI51
(I1
I31
tp87
sI52
(I1
I31
tp88
sI53
(I1
I31
tp89
sI54
(I1
I31
tp90
sI55
(I1
I31
tp91
sI56
(I1
I31
tp92
sI57
(I1
I31
tp93
sI58
(I1
I31
tp94
sI59
(I1
I31
tp95
sI60
(I1
I31
tp96
sI61
(I1
I31
tp97
sI62
(I1
I31
tp98
sI63
(I1
I31
tp99
sI64
(I1
I31
tp100
sI65
(I1
I31
tp101
sI66
(I1
I31
tp102
sI67
(I1
I31
tp103
sI68
(I1
I31
tp104
sI69
(I1
I31
tp105
sI70
(I1
I31
tp106
sI71
(I1
I31
tp107
sI72
(I1
I31
tp108
sI73
(I1
I31
tp109
sI74
(I1
I31
tp110
sI75
(I1
I31
tp111
sI76
(I1
I31
tp112
sI77
(I1
I31
tp113
sI78
(I1
I31
tp114
sI79
(I1
I31
tp115
sI80
(I1
I31
tp116
sI81
(I1
I31
tp117
sI82
(I1
I31
tp118
sI83
(I1
I31
tp119
sI84
(I1
I31
tp120
sI85
(I1
I31
tp121
sI86
(I1
I31
tp122
sI87
(I1
I31
tp123
sI88
(I1
I31
tp124
sI89
(I1
I31
tp125
sI90
(I1
I31
tp126
sI91
(I1
I31
tp127
sI92
(I1
I31
tp128
sI93
(I1
I31
tp129
sI94
(I1
I31
tp130
sI95
(I2
I30
tp131
sI96
(I2
I30
tp132
sI97
(I2
I30
tp133
sI98
(I2
I30
tp134
sI99
(I2
I30
tp135
sI100
(I2
I30
tp136
sI101
(I2
I30
tp137
sI102
(I3
I29
tp138
sI103
(I3
I29
tp139
sI104
(I3
I29
tp140
sI105
(I3
I29
tp141
sI106
(I3
I29
tp142
sI107
(I3
I29
tp143
sI108
(I4
I28
tp144
sI109
(I4
I28
tp145
sI110
(I4
I28
tp146
sI111
(I4
I28
tp147
sI112
(I4
I28
tp148
sI113
(I5
I27
tp149
sI114
(I5
I27
tp150
sI115
(I5
I27
tp151
sI116
(I5
I27
tp152
sI117
(I6
I26
tp153
sI118
(I6
I26
tp154
sI119
(I6
I26
tp155
sI120
(I7
I25
tp156
sI121
(I7
I25
tp157
sI122
(I7
I25
tp158
sI123
(I8
I24
tp159
sI124
(I8
I24
tp160
sI125
(I8
I24
tp161
sI126
(I9
I23
tp162
sI127
(I9
I23
tp163
sI128
(I10
I22
tp164
sI129
(I11
I21
tp165
sI130
(I11
I21
tp166
sI131
(I12
I20
tp167
sI132
(I13
I19
tp168
sI133
(I15
I17
tp169
stp170
.